
W:/ECE243/Project2/moveRocket.axf:     file format elf32-littlearm


Disassembly of section .text:

00000000 <__cs3_interrupt_vector>:
       0:	18 f0 9f e5 18 f0 9f e5 18 f0 9f e5 18 f0 9f e5     ................
      10:	18 f0 9f e5 18 f0 9f e5 18 f0 9f e5 18 f0 9f e5     ................
      20:	40 00 00 00 10 1b 07 00 14 1b 07 00 18 1b 07 00     @...............
      30:	1c 1b 07 00 0c 1b 07 00 20 1b 07 00 24 1b 07 00     ........ ...$...

00000040 <__cs3_reset>:
      40:	ea000026 	b	e0 <__cs3_start_asm_sim>

00000044 <__cs3_start_c>:
      44:	e59f608c 	ldr	r6, [pc, #140]	; d8 <__cs3_region_zero_size_ram+0x10>
      48:	e3560000 	cmp	r6, #0
      4c:	e92d4080 	push	{r7, lr}
      50:	e2466001 	sub	r6, r6, #1
      54:	0a00001e 	beq	d4 <__cs3_region_zero_size_ram+0xc>
      58:	e59f507c 	ldr	r5, [pc, #124]	; dc <__cs3_region_zero_size_ram+0x14>
      5c:	e3a00000 	mov	r0, #0
      60:	e3a01000 	mov	r1, #0
      64:	e515200c 	ldr	r2, [r5, #-12]
      68:	e515e010 	ldr	lr, [r5, #-16]
      6c:	e5154008 	ldr	r4, [r5, #-8]
      70:	e15e0002 	cmp	lr, r2
      74:	00822004 	addeq	r2, r2, r4
      78:	0a000009 	beq	a4 <__cs3_start_c+0x60>
      7c:	e3540000 	cmp	r4, #0
      80:	0a000007 	beq	a4 <__cs3_start_c+0x60>
      84:	e1a07002 	mov	r7, r2
      88:	e1a0c002 	mov	r12, r2
      8c:	e8be000c 	ldm	lr!, {r2, r3}
      90:	e8ac000c 	stmia	r12!, {r2, r3}
      94:	e067300c 	rsb	r3, r7, r12
      98:	e1540003 	cmp	r4, r3
      9c:	e1a0200c 	mov	r2, r12
      a0:	1afffff9 	bne	8c <__cs3_start_c+0x48>
      a4:	e515e004 	ldr	lr, [r5, #-4]
      a8:	e35e0000 	cmp	lr, #0
      ac:	11a03002 	movne	r3, r2
      b0:	0a000003 	beq	c4 <__cs3_start_c+0x80>
      b4:	e8a30003 	stmia	r3!, {r0, r1}
      b8:	e062c003 	rsb	r12, r2, r3
      bc:	e15e000c 	cmp	lr, r12
      c0:	1afffffb 	bne	b4 <__cs3_start_c+0x70>
      c4:	e2466001 	sub	r6, r6, #1
      c8:	e3760001 	cmn	r6, #1
      cc:	e2855014 	add	r5, r5, #20
      d0:	1affffe3 	bne	64 <__cs3_start_c+0x20>
      d4:	eb01c673 	bl	71aa8 <__cs3_premain>
      d8:	00000001 	.word	0x00000001
      dc:	00071c0c 	.word	0x00071c0c

000000e0 <__cs3_start_asm_sim>:
      e0:	e28f103c 	add	r1, pc, #60	; 0x3c
      e4:	e3a00016 	mov	r0, #22
      e8:	ef123456 	svc	0x00123456
      ec:	e3500000 	cmp	r0, #0
      f0:	ba000008 	blt	118 <__cs3_start_asm_sim+0x38>
      f4:	e59f2028 	ldr	r2, [pc, #40]	; 124 <__cs3_heap_start_ptr>
      f8:	e59fd01c 	ldr	sp, [pc, #28]	; 11c <__cs3_start_asm_sim+0x3c>
      fc:	e5920008 	ldr	r0, [r2, #8]
     100:	e3500000 	cmp	r0, #0
     104:	11a0d000 	movne	sp, r0
     108:	e59f1010 	ldr	r1, [pc, #16]	; 120 <__cs3_start_asm_sim+0x40>
     10c:	e5920004 	ldr	r0, [r2, #4]
     110:	e3500000 	cmp	r0, #0
     114:	15810000 	strne	r0, [r1]
     118:	eaffffc9 	b	44 <__cs3_start_c>
     11c:	3ffffff8 	.word	0x3ffffff8
     120:	000720b8 	.word	0x000720b8

00000124 <__cs3_heap_start_ptr>:
     124:	00072188 	.word	0x00072188

00000128 <_start>:
     128:	e51fd000 	ldr	sp, [pc, #-0]	; 130 <_start+0x8>
     12c:	eaffffc4 	b	44 <__cs3_start_c>
     130:	3ffffff8 	.word	0x3ffffff8

00000134 <deregister_tm_clones>:
     134:	e92d4008 	push	{r3, lr}
     138:	e59f002c 	ldr	r0, [pc, #44]	; 16c <deregister_tm_clones+0x38>
     13c:	e59f302c 	ldr	r3, [pc, #44]	; 170 <deregister_tm_clones+0x3c>
     140:	e0603003 	rsb	r3, r0, r3
     144:	e3530006 	cmp	r3, #6
     148:	8a000001 	bhi	154 <deregister_tm_clones+0x20>
     14c:	e8bd4008 	pop	{r3, lr}
     150:	e12fff1e 	bx	lr
     154:	e59f3018 	ldr	r3, [pc, #24]	; 174 <deregister_tm_clones+0x40>
     158:	e3530000 	cmp	r3, #0
     15c:	0afffffa 	beq	14c <deregister_tm_clones+0x18>
     160:	e1a0e00f 	mov	lr, pc
     164:	e12fff13 	bx	r3
     168:	eafffff7 	b	14c <deregister_tm_clones+0x18>
     16c:	000720c0 	.word	0x000720c0
     170:	000720c3 	.word	0x000720c3
     174:	00000000 	.word	0x00000000

00000178 <register_tm_clones>:
     178:	e92d4008 	push	{r3, lr}
     17c:	e59f0034 	ldr	r0, [pc, #52]	; 1b8 <register_tm_clones+0x40>
     180:	e59f3034 	ldr	r3, [pc, #52]	; 1bc <register_tm_clones+0x44>
     184:	e0603003 	rsb	r3, r0, r3
     188:	e1a03143 	asr	r3, r3, #2
     18c:	e0833fa3 	add	r3, r3, r3, lsr #31
     190:	e1b010c3 	asrs	r1, r3, #1
     194:	1a000001 	bne	1a0 <register_tm_clones+0x28>
     198:	e8bd4008 	pop	{r3, lr}
     19c:	e12fff1e 	bx	lr
     1a0:	e59f2018 	ldr	r2, [pc, #24]	; 1c0 <register_tm_clones+0x48>
     1a4:	e3520000 	cmp	r2, #0
     1a8:	0afffffa 	beq	198 <register_tm_clones+0x20>
     1ac:	e1a0e00f 	mov	lr, pc
     1b0:	e12fff12 	bx	r2
     1b4:	eafffff7 	b	198 <register_tm_clones+0x20>
     1b8:	000720c0 	.word	0x000720c0
     1bc:	000720c0 	.word	0x000720c0
     1c0:	00000000 	.word	0x00000000

000001c4 <__do_global_dtors_aux>:
     1c4:	e92d4010 	push	{r4, lr}
     1c8:	e59f402c 	ldr	r4, [pc, #44]	; 1fc <__do_global_dtors_aux+0x38>
     1cc:	e5d43000 	ldrb	r3, [r4]
     1d0:	e3530000 	cmp	r3, #0
     1d4:	1a000006 	bne	1f4 <__do_global_dtors_aux+0x30>
     1d8:	ebffffd5 	bl	134 <deregister_tm_clones>
     1dc:	e59f301c 	ldr	r3, [pc, #28]	; 200 <__do_global_dtors_aux+0x3c>
     1e0:	e3530000 	cmp	r3, #0
     1e4:	159f0018 	ldrne	r0, [pc, #24]	; 204 <__do_global_dtors_aux+0x40>
     1e8:	1320f000 	nopne	{0}
     1ec:	e3a03001 	mov	r3, #1
     1f0:	e5c43000 	strb	r3, [r4]
     1f4:	e8bd4010 	pop	{r4, lr}
     1f8:	e12fff1e 	bx	lr
     1fc:	000720c0 	.word	0x000720c0
     200:	00000000 	.word	0x00000000
     204:	00071bb0 	.word	0x00071bb0

00000208 <frame_dummy>:
     208:	e92d4008 	push	{r3, lr}
     20c:	e59f3034 	ldr	r3, [pc, #52]	; 248 <frame_dummy+0x40>
     210:	e3530000 	cmp	r3, #0
     214:	159f0030 	ldrne	r0, [pc, #48]	; 24c <frame_dummy+0x44>
     218:	159f1030 	ldrne	r1, [pc, #48]	; 250 <frame_dummy+0x48>
     21c:	1320f000 	nopne	{0}
     220:	e59f002c 	ldr	r0, [pc, #44]	; 254 <frame_dummy+0x4c>
     224:	e5903000 	ldr	r3, [r0]
     228:	e3530000 	cmp	r3, #0
     22c:	0a000003 	beq	240 <frame_dummy+0x38>
     230:	e59f3020 	ldr	r3, [pc, #32]	; 258 <frame_dummy+0x50>
     234:	e3530000 	cmp	r3, #0
     238:	11a0e00f 	movne	lr, pc
     23c:	112fff13 	bxne	r3
     240:	e8bd4008 	pop	{r3, lr}
     244:	eaffffcb 	b	178 <register_tm_clones>
     248:	00000000 	.word	0x00000000
     24c:	00071bb0 	.word	0x00071bb0
     250:	000720c4 	.word	0x000720c4
     254:	00071c10 	.word	0x00071c10
     258:	00000000 	.word	0x00000000

0000025c <plot_pixel>:
    } 
}
 

void plot_pixel(int x, int y, short int line_color) {
	if ((x >= 0) && (x < 320) && (y >= 0) && (y < 240)) {
     25c:	e1e03001 	mvn	r3, r1
     260:	e1a03fa3 	lsr	r3, r3, #31
     264:	e3500d05 	cmp	r0, #320	; 0x140
     268:	23a03000 	movcs	r3, #0
     26c:	e3530000 	cmp	r3, #0
     270:	012fff1e 	bxeq	lr
     274:	e35100ef 	cmp	r1, #239	; 0xef
     278:	c12fff1e 	bxgt	lr
        *(short int *)(pixelBufferStart + (y << 10) + (x << 1)) = line_color;
     27c:	e30230dc 	movw	r3, #8412	; 0x20dc
     280:	e3403007 	movt	r3, #7
     284:	e5933000 	ldr	r3, [r3]
     288:	e1a00080 	lsl	r0, r0, #1
     28c:	e0831501 	add	r1, r3, r1, lsl #10
     290:	e18120b0 	strh	r2, [r1, r0]
     294:	e12fff1e 	bx	lr

00000298 <clear_screen>:
void draw() { 
	//clear_screen(); 
	drawObstacles(); 
} 

void clear_screen() { 
     298:	e92d40f8 	push	{r3, r4, r5, r6, r7, lr}
    for(int x = 0; x <= maxX; x++) { 
     29c:	e3013c18 	movw	r3, #7192	; 0x1c18
     2a0:	e3403007 	movt	r3, #7
     2a4:	e5933000 	ldr	r3, [r3]
     2a8:	e3530000 	cmp	r3, #0
     2ac:	b8bd80f8 	poplt	{r3, r4, r5, r6, r7, pc}
     2b0:	ea00000c 	b	2e8 <clear_screen+0x50>
        for(int y = 0; y <= maxY; y++) { 
            plot_pixel(x,y, 0x0000);  
     2b4:	e1a00005 	mov	r0, r5
     2b8:	e1a01004 	mov	r1, r4
     2bc:	e1a02007 	mov	r2, r7
     2c0:	ebffffe5 	bl	25c <plot_pixel>
	drawObstacles(); 
} 

void clear_screen() { 
    for(int x = 0; x <= maxX; x++) { 
        for(int y = 0; y <= maxY; y++) { 
     2c4:	e2844001 	add	r4, r4, #1
     2c8:	e5963004 	ldr	r3, [r6, #4]
     2cc:	e1530004 	cmp	r3, r4
     2d0:	aafffff7 	bge	2b4 <clear_screen+0x1c>
	//clear_screen(); 
	drawObstacles(); 
} 

void clear_screen() { 
    for(int x = 0; x <= maxX; x++) { 
     2d4:	e2855001 	add	r5, r5, #1
     2d8:	e5963000 	ldr	r3, [r6]
     2dc:	e1530005 	cmp	r3, r5
     2e0:	aa000004 	bge	2f8 <clear_screen+0x60>
     2e4:	e8bd80f8 	pop	{r3, r4, r5, r6, r7, pc}
     2e8:	e3a05000 	mov	r5, #0
        for(int y = 0; y <= maxY; y++) { 
     2ec:	e3016c18 	movw	r6, #7192	; 0x1c18
     2f0:	e3406007 	movt	r6, #7
     2f4:	e1a07005 	mov	r7, r5
     2f8:	e5963004 	ldr	r3, [r6, #4]
     2fc:	e3530000 	cmp	r3, #0
     300:	a1a04007 	movge	r4, r7
     304:	aaffffea 	bge	2b4 <clear_screen+0x1c>
     308:	eafffff1 	b	2d4 <clear_screen+0x3c>

0000030c <wait_for_vsync>:
	volatile int* pixelCtrlPtr = (int*) 0xFF203020; 
	
	/* Read location of the pixel buffer from the pixel buffer controller */ 
	register int status;   

	*pixelCtrlPtr = 1;  
     30c:	e3033fff 	movw	r3, #16383	; 0x3fff
     310:	e34f3f20 	movt	r3, #65312	; 0xff20
     314:	e3a02001 	mov	r2, #1
     318:	e5032fdf 	str	r2, [r3, #-4063]	; 0xfffff021
	status = *(pixelCtrlPtr + 3);  
     31c:	e5133fd3 	ldr	r3, [r3, #-4051]	; 0xfffff02d
	while((status & 0x01) != 0) { 
     320:	e3130001 	tst	r3, #1
     324:	012fff1e 	bxeq	lr
		status = *(pixelCtrlPtr + 3);  
     328:	e3032fff 	movw	r2, #16383	; 0x3fff
     32c:	e34f2f20 	movt	r2, #65312	; 0xff20
     330:	e5123fd3 	ldr	r3, [r2, #-4051]	; 0xfffff02d
	/* Read location of the pixel buffer from the pixel buffer controller */ 
	register int status;   

	*pixelCtrlPtr = 1;  
	status = *(pixelCtrlPtr + 3);  
	while((status & 0x01) != 0) { 
     334:	e3130001 	tst	r3, #1
     338:	1afffffc 	bne	330 <wait_for_vsync+0x24>
     33c:	e12fff1e 	bx	lr

00000340 <drawRocket>:
		status = *(pixelCtrlPtr + 3);  
	} 
} 

void drawRocket(int x, int y) {
     340:	e92d4ff8 	push	{r3, r4, r5, r6, r7, r8, r9, r10, r11, lr}
     344:	e1a0b000 	mov	r11, r0
     348:	e1a09001 	mov	r9, r1
     34c:	e59f6050 	ldr	r6, [pc, #80]	; 3a4 <drawRocket+0x64>
    int i, j;

    for (i = 0; i < 13; i++) {
     350:	e3a08000 	mov	r8, #0
	while((status & 0x01) != 0) { 
		status = *(pixelCtrlPtr + 3);  
	} 
} 

void drawRocket(int x, int y) {
     354:	e300ab64 	movw	r10, #2916	; 0xb64
     358:	e340a000 	movt	r10, #0
     35c:	ea00000a 	b	38c <drawRocket+0x4c>
    int i, j;

    for (i = 0; i < 13; i++) {
        for (j = 0; j < 35; j++) {
            plot_pixel(j + x, i + y, ROCKET[i][j]);
     360:	e1a00004 	mov	r0, r4
     364:	e1a01007 	mov	r1, r7
     368:	e1f520f2 	ldrsh	r2, [r5, #2]!
     36c:	ebffffba 	bl	25c <plot_pixel>
     370:	e2844001 	add	r4, r4, #1

void drawRocket(int x, int y) {
    int i, j;

    for (i = 0; i < 13; i++) {
        for (j = 0; j < 35; j++) {
     374:	e1560005 	cmp	r6, r5
     378:	1afffff8 	bne	360 <drawRocket+0x20>
} 

void drawRocket(int x, int y) {
    int i, j;

    for (i = 0; i < 13; i++) {
     37c:	e2888001 	add	r8, r8, #1
     380:	e2866046 	add	r6, r6, #70	; 0x46
     384:	e358000d 	cmp	r8, #13
     388:	08bd8ff8 	popeq	{r3, r4, r5, r6, r7, r8, r9, r10, r11, pc}
	while((status & 0x01) != 0) { 
		status = *(pixelCtrlPtr + 3);  
	} 
} 

void drawRocket(int x, int y) {
     38c:	e3a03046 	mov	r3, #70	; 0x46
     390:	e025a893 	mla	r5, r3, r8, r10
     394:	e2455002 	sub	r5, r5, #2
     398:	e1a0400b 	mov	r4, r11
     39c:	e0887009 	add	r7, r8, r9
     3a0:	eaffffee 	b	360 <drawRocket+0x20>
     3a4:	00000ba8 	.word	0x00000ba8

000003a8 <clearRocket>:
            plot_pixel(j + x, i + y, ROCKET[i][j]);
        }
    }
}

void clearRocket(int x, int y) {
     3a8:	e92d45f8 	push	{r3, r4, r5, r6, r7, r8, r10, lr}
     3ac:	e1a07000 	mov	r7, r0
     3b0:	e1a0a001 	mov	r10, r1
    int i, j;

    for (i = 0; i < 13; i++) {
     3b4:	e3a08000 	mov	r8, #0
            plot_pixel(j + x, i + y, ROCKET[i][j]);
        }
    }
}

void clearRocket(int x, int y) {
     3b8:	e1a05008 	mov	r5, r8
     3bc:	ea000009 	b	3e8 <clearRocket+0x40>
    int i, j;

    for (i = 0; i < 13; i++) {
        for (j = 0; j < 35; j++) {
            plot_pixel(j + x, i + y, 0x0000/*BACKGROUND[i+y][j+x]*/);
     3c0:	e0840007 	add	r0, r4, r7
     3c4:	e1a01006 	mov	r1, r6
     3c8:	e1a02005 	mov	r2, r5
     3cc:	ebffffa2 	bl	25c <plot_pixel>

void clearRocket(int x, int y) {
    int i, j;

    for (i = 0; i < 13; i++) {
        for (j = 0; j < 35; j++) {
     3d0:	e2844001 	add	r4, r4, #1
     3d4:	e3540023 	cmp	r4, #35	; 0x23
     3d8:	1afffff8 	bne	3c0 <clearRocket+0x18>
}

void clearRocket(int x, int y) {
    int i, j;

    for (i = 0; i < 13; i++) {
     3dc:	e2888001 	add	r8, r8, #1
     3e0:	e358000d 	cmp	r8, #13
     3e4:	08bd85f8 	popeq	{r3, r4, r5, r6, r7, r8, r10, pc}
            plot_pixel(j + x, i + y, ROCKET[i][j]);
        }
    }
}

void clearRocket(int x, int y) {
     3e8:	e1a04005 	mov	r4, r5
     3ec:	e088600a 	add	r6, r8, r10
     3f0:	eafffff2 	b	3c0 <clearRocket+0x18>

000003f4 <plot_background>:
            plot_pixel(j + x, i + y, 0x0000/*BACKGROUND[i+y][j+x]*/);
        }
    }
}

void plot_background() {
     3f4:	e92d4070 	push	{r4, r5, r6, lr}
    int i, j;
    
    for (i = 0; i < 240; i++) {
     3f8:	e3a05000 	mov	r5, #0
            plot_pixel(j + x, i + y, 0x0000/*BACKGROUND[i+y][j+x]*/);
        }
    }
}

void plot_background() {
     3fc:	e1a06005 	mov	r6, r5
     400:	ea000009 	b	42c <plot_background+0x38>
    int i, j;
    
    for (i = 0; i < 240; i++) {
        for (j = 0; j < 320; j++) {
            plot_pixel(j, i, 0x0000);
     404:	e1a00004 	mov	r0, r4
     408:	e1a01005 	mov	r1, r5
     40c:	e1a02006 	mov	r2, r6
     410:	ebffff91 	bl	25c <plot_pixel>

void plot_background() {
    int i, j;
    
    for (i = 0; i < 240; i++) {
        for (j = 0; j < 320; j++) {
     414:	e2844001 	add	r4, r4, #1
     418:	e3540d05 	cmp	r4, #320	; 0x140
     41c:	1afffff8 	bne	404 <plot_background+0x10>
}

void plot_background() {
    int i, j;
    
    for (i = 0; i < 240; i++) {
     420:	e2855001 	add	r5, r5, #1
     424:	e35500f0 	cmp	r5, #240	; 0xf0
     428:	08bd8070 	popeq	{r4, r5, r6, pc}
            plot_pixel(j + x, i + y, 0x0000/*BACKGROUND[i+y][j+x]*/);
        }
    }
}

void plot_background() {
     42c:	e1a04006 	mov	r4, r6
     430:	eafffff3 	b	404 <plot_background+0x10>

00000434 <createObstacles>:
            plot_pixel(j, i, 0x0000);
        }
    }
}

void createObstacles() { 
     434:	e92d4ff8 	push	{r3, r4, r5, r6, r7, r8, r9, r10, r11, lr}
    for(int index = 0; index < totalObjects; index++) { 
     438:	e3013c18 	movw	r3, #7192	; 0x1c18
     43c:	e3403007 	movt	r3, #7
     440:	e5933008 	ldr	r3, [r3, #8]
     444:	e3530000 	cmp	r3, #0
     448:	d8bd8ff8 	pople	{r3, r4, r5, r6, r7, r8, r9, r10, r11, pc}
            plot_pixel(j, i, 0x0000);
        }
    }
}

void createObstacles() { 
     44c:	e3019c18 	movw	r9, #7192	; 0x1c18
     450:	e3409007 	movt	r9, #7
     454:	e289b00a 	add	r11, r9, #10
     458:	e59f70e4 	ldr	r7, [pc, #228]	; 544 <createObstacles+0x110>
     45c:	e2899018 	add	r9, r9, #24
    for(int index = 0; index < totalObjects; index++) { 
     460:	e3a08000 	mov	r8, #0
        int width = rand() % 20 + 10; 
     464:	e3066667 	movw	r6, #26215	; 0x6667
     468:	e3466666 	movt	r6, #26214	; 0x6666
        while(width == 0) width = rand() % 10;  
        ob1[index].width = width; 
        ob1[index].x = maxX - ob1[index].width;  
     46c:	e301ac18 	movw	r10, #7192	; 0x1c18
     470:	e340a007 	movt	r10, #7
        ob1[index].y = yLoc[index];  
        ob1[index].speed = rand() % 7; 
     474:	e3025493 	movw	r5, #9363	; 0x2493
     478:	e3495249 	movt	r5, #37449	; 0x9249
    }
}

void createObstacles() { 
    for(int index = 0; index < totalObjects; index++) { 
        int width = rand() % 20 + 10; 
     47c:	eb01c4bc 	bl	71774 <rand>
     480:	e0c23096 	smull	r3, r2, r6, r0
     484:	e1a03fc0 	asr	r3, r0, #31
     488:	e06331c2 	rsb	r3, r3, r2, asr #3
     48c:	e0833103 	add	r3, r3, r3, lsl #2
     490:	e0403103 	sub	r3, r0, r3, lsl #2
        while(width == 0) width = rand() % 10;  
     494:	e293300a 	adds	r3, r3, #10
     498:	1a000006 	bne	4b8 <createObstacles+0x84>
     49c:	eb01c4b4 	bl	71774 <rand>
     4a0:	e0c23096 	smull	r3, r2, r6, r0
     4a4:	e1a03fc0 	asr	r3, r0, #31
     4a8:	e0633142 	rsb	r3, r3, r2, asr #2
     4ac:	e0833103 	add	r3, r3, r3, lsl #2
     4b0:	e0503083 	subs	r3, r0, r3, lsl #1
     4b4:	0afffff8 	beq	49c <createObstacles+0x68>
            plot_pixel(j, i, 0x0000);
        }
    }
}

void createObstacles() { 
     4b8:	e1a04007 	mov	r4, r7
    for(int index = 0; index < totalObjects; index++) { 
        int width = rand() % 20 + 10; 
        while(width == 0) width = rand() % 10;  
        ob1[index].width = width; 
     4bc:	e5073008 	str	r3, [r7, #-8]
        ob1[index].x = maxX - ob1[index].width;  
     4c0:	e59a2000 	ldr	r2, [r10]
     4c4:	e0633002 	rsb	r3, r3, r2
     4c8:	e5073010 	str	r3, [r7, #-16]
        ob1[index].y = yLoc[index];  
     4cc:	e5b93004 	ldr	r3, [r9, #4]!
     4d0:	e507300c 	str	r3, [r7, #-12]
        ob1[index].speed = rand() % 7; 
     4d4:	eb01c4a6 	bl	71774 <rand>
     4d8:	e0c32095 	smull	r2, r3, r5, r0
     4dc:	e0833000 	add	r3, r3, r0
     4e0:	e1a02fc0 	asr	r2, r0, #31
     4e4:	e0623143 	rsb	r3, r2, r3, asr #2
     4e8:	e0633183 	rsb	r3, r3, r3, lsl #3
     4ec:	e0633000 	rsb	r3, r3, r0
     4f0:	e5073004 	str	r3, [r7, #-4]
        while(ob1[index].speed  == 0) ob1[index].speed = rand() % 7; 
     4f4:	e3530000 	cmp	r3, #0
     4f8:	1a000009 	bne	524 <createObstacles+0xf0>
     4fc:	eb01c49c 	bl	71774 <rand>
     500:	e0c32095 	smull	r2, r3, r5, r0
     504:	e0833000 	add	r3, r3, r0
     508:	e1a02fc0 	asr	r2, r0, #31
     50c:	e0623143 	rsb	r3, r2, r3, asr #2
     510:	e0633183 	rsb	r3, r3, r3, lsl #3
     514:	e0633000 	rsb	r3, r3, r0
     518:	e5043004 	str	r3, [r4, #-4]
     51c:	e3530000 	cmp	r3, #0
     520:	0afffff5 	beq	4fc <createObstacles+0xc8>
        ob1[index].color = colors[index];  
     524:	e1fb30b2 	ldrh	r3, [r11, #2]!
     528:	e1c430b0 	strh	r3, [r4]
        }
    }
}

void createObstacles() { 
    for(int index = 0; index < totalObjects; index++) { 
     52c:	e2888001 	add	r8, r8, #1
     530:	e2877014 	add	r7, r7, #20
     534:	e59a3008 	ldr	r3, [r10, #8]
     538:	e1530008 	cmp	r3, r8
     53c:	caffffce 	bgt	47c <createObstacles+0x48>
     540:	e8bd8ff8 	pop	{r3, r4, r5, r6, r7, r8, r9, r10, r11, pc}
     544:	000720f0 	.word	0x000720f0

00000548 <swap>:
    } 
} 
 
 
void swap(int* numberA, int* numberB) { 
    int temp = *numberA; 
     548:	e5903000 	ldr	r3, [r0]
    *numberA = *numberB; 
     54c:	e5912000 	ldr	r2, [r1]
     550:	e5802000 	str	r2, [r0]
    *numberB = temp;  
     554:	e5813000 	str	r3, [r1]
     558:	e12fff1e 	bx	lr

0000055c <draw_line>:
 
void drawBoxA(int x, int y, int width, short int color) { 
    draw_line(x, y, x + width, y, color); 
} 

void draw_line(int x0, int y0, int x1, int y1, short int line_color) { 
     55c:	e92d4ff0 	push	{r4, r5, r6, r7, r8, r9, r10, r11, lr}
     560:	e24dd014 	sub	sp, sp, #20
     564:	e58d000c 	str	r0, [sp, #12]
     568:	e58d1008 	str	r1, [sp, #8]
     56c:	e58d2004 	str	r2, [sp, #4]
     570:	e58d3000 	str	r3, [sp]
     574:	e1dda3f8 	ldrsh	r10, [sp, #56]	; 0x38
    bool is_steep = (abs(y1 - y0) > abs(x1 - x0)); 
     578:	e0613003 	rsb	r3, r1, r3
     57c:	e3530000 	cmp	r3, #0
     580:	b2633000 	rsblt	r3, r3, #0
     584:	e0602002 	rsb	r2, r0, r2
     588:	e0228fc2 	eor	r8, r2, r2, asr #31
     58c:	e0488fc2 	sub	r8, r8, r2, asr #31
     590:	e1530008 	cmp	r3, r8
     594:	d3a08000 	movle	r8, #0
     598:	c3a08001 	movgt	r8, #1
    if (is_steep) { 
     59c:	e3580000 	cmp	r8, #0
     5a0:	0a000005 	beq	5bc <draw_line+0x60>
        swap(&x0, &y0); 
     5a4:	e28d000c 	add	r0, sp, #12
     5a8:	e28d1008 	add	r1, sp, #8
     5ac:	ebffffe5 	bl	548 <swap>
        swap(&x1, &y1); 
     5b0:	e28d0004 	add	r0, sp, #4
     5b4:	e1a0100d 	mov	r1, sp
     5b8:	ebffffe2 	bl	548 <swap>
    } 
    if (x0 > x1) { 
     5bc:	e59d3004 	ldr	r3, [sp, #4]
     5c0:	e59d200c 	ldr	r2, [sp, #12]
     5c4:	e1520003 	cmp	r2, r3
     5c8:	da000005 	ble	5e4 <draw_line+0x88>
       swap(&x0, &x1); 
     5cc:	e28d000c 	add	r0, sp, #12
     5d0:	e28d1004 	add	r1, sp, #4
     5d4:	ebffffdb 	bl	548 <swap>
        swap(&y0, &y1); 
     5d8:	e28d0008 	add	r0, sp, #8
     5dc:	e1a0100d 	mov	r1, sp
     5e0:	ebffffd8 	bl	548 <swap>
   } 
   int delta_x = x1 - x0; 
     5e4:	e59d3004 	ldr	r3, [sp, #4]
     5e8:	e59d500c 	ldr	r5, [sp, #12]
     5ec:	e0659003 	rsb	r9, r5, r3
   int delta_y = abs(y1 - y0); 
     5f0:	e59d2000 	ldr	r2, [sp]
     5f4:	e59d6008 	ldr	r6, [sp, #8]
     5f8:	e0667002 	rsb	r7, r6, r2
     5fc:	e3570000 	cmp	r7, #0
     600:	b2677000 	rsblt	r7, r7, #0
   int error = -(delta_x / 2); 
     604:	e0894fa9 	add	r4, r9, r9, lsr #31
     608:	e1a040c4 	asr	r4, r4, #1
     60c:	e2644000 	rsb	r4, r4, #0
    int y = y0; 
    int y_step; 
    if (y0 < y1) y_step = 1; 
     610:	e1520006 	cmp	r2, r6
     614:	d3e0b000 	mvnle	r11, #0
     618:	c3a0b001 	movgt	r11, #1
    else y_step = -1; 
    for (int x = x0; x <= x1; x++) { 
     61c:	e1530005 	cmp	r3, r5
     620:	ba00000d 	blt	65c <draw_line+0x100>
        if (is_steep) { 
     624:	e3580000 	cmp	r8, #0
            plot_pixel(y, x, line_color); 
     628:	11a00006 	movne	r0, r6
     62c:	11a01005 	movne	r1, r5
        } 
        else { 
            plot_pixel(x, y, line_color); 
     630:	01a00005 	moveq	r0, r5
     634:	01a01006 	moveq	r1, r6
     638:	e1a0200a 	mov	r2, r10
     63c:	ebffff06 	bl	25c <plot_pixel>
        } 
        error += delta_y; 
        if (error >= 0) { 
     640:	e0944007 	adds	r4, r4, r7
            y += y_step; 
     644:	5086600b 	addpl	r6, r6, r11
            error -= delta_x; 
     648:	50694004 	rsbpl	r4, r9, r4
   int error = -(delta_x / 2); 
    int y = y0; 
    int y_step; 
    if (y0 < y1) y_step = 1; 
    else y_step = -1; 
    for (int x = x0; x <= x1; x++) { 
     64c:	e2855001 	add	r5, r5, #1
     650:	e59d3004 	ldr	r3, [sp, #4]
     654:	e1530005 	cmp	r3, r5
     658:	aafffff1 	bge	624 <draw_line+0xc8>
        if (error >= 0) { 
            y += y_step; 
            error -= delta_x; 
        } 
    } 
} 
     65c:	e28dd014 	add	sp, sp, #20
     660:	e8bd8ff0 	pop	{r4, r5, r6, r7, r8, r9, r10, r11, pc}

00000664 <drawBoxA>:
        } 
        drawBoxA(ob1[index].x, ob1[index].y, ob1[index].width, ob1[index].color);  
    }
}  
 
void drawBoxA(int x, int y, int width, short int color) { 
     664:	e52de004 	push	{lr}		; (str lr, [sp, #-4]!)
     668:	e24dd00c 	sub	sp, sp, #12
    draw_line(x, y, x + width, y, color); 
     66c:	e58d3000 	str	r3, [sp]
     670:	e0802002 	add	r2, r0, r2
     674:	e1a03001 	mov	r3, r1
     678:	ebffffb7 	bl	55c <draw_line>
} 
     67c:	e28dd00c 	add	sp, sp, #12
     680:	e8bd8000 	ldmfd	sp!, {pc}

00000684 <drawObstacles>:
        ob1[index].color = colors[index];  
    } 
} 
 
 
void drawObstacles() { 
     684:	e92d45f8 	push	{r3, r4, r5, r6, r7, r8, r10, lr}
    for(int index = 0; index < totalObjects; index++) { 
     688:	e3013c18 	movw	r3, #7192	; 0x1c18
     68c:	e3403007 	movt	r3, #7
     690:	e5933008 	ldr	r3, [r3, #8]
     694:	e3530000 	cmp	r3, #0
     698:	d8bd85f8 	pople	{r3, r4, r5, r6, r7, r8, r10, pc}
     69c:	e59f409c 	ldr	r4, [pc, #156]	; 740 <drawObstacles+0xbc>
     6a0:	e3a06000 	mov	r6, #0
		drawBoxA(ob1[index].x, ob1[index].y, ob1[index].width, 0x0000);
     6a4:	e1a08006 	mov	r8, r6
        if (ob1[index].x + ob1[index].speed  < 0) { 
            ob1[index].x = maxX - ob1[index].width;  
     6a8:	e3017c18 	movw	r7, #7192	; 0x1c18
     6ac:	e3407007 	movt	r7, #7
            ob1[index].y = yLoc[index];  
			finalScore++; 
     6b0:	e302a0dc 	movw	r10, #8412	; 0x20dc
     6b4:	e340a007 	movt	r10, #7
        ob1[index].color = colors[index];  
    } 
} 
 
 
void drawObstacles() { 
     6b8:	e1a05004 	mov	r5, r4
    for(int index = 0; index < totalObjects; index++) { 
		drawBoxA(ob1[index].x, ob1[index].y, ob1[index].width, 0x0000);
     6bc:	e5140010 	ldr	r0, [r4, #-16]
     6c0:	e514100c 	ldr	r1, [r4, #-12]
     6c4:	e5142008 	ldr	r2, [r4, #-8]
     6c8:	e1a03008 	mov	r3, r8
     6cc:	ebffffe4 	bl	664 <drawBoxA>
        if (ob1[index].x + ob1[index].speed  < 0) { 
     6d0:	e5141010 	ldr	r1, [r4, #-16]
     6d4:	e5142004 	ldr	r2, [r4, #-4]
     6d8:	e1710002 	cmn	r1, r2
            ob1[index].x = maxX - ob1[index].width;  
            ob1[index].y = yLoc[index];  
			finalScore++; 
        } else { 
            ob1[index].x -= ob1[index].speed;  
     6dc:	50622001 	rsbpl	r2, r2, r1
     6e0:	55042010 	strpl	r2, [r4, #-16]
 
 
void drawObstacles() { 
    for(int index = 0; index < totalObjects; index++) { 
		drawBoxA(ob1[index].x, ob1[index].y, ob1[index].width, 0x0000);
        if (ob1[index].x + ob1[index].speed  < 0) { 
     6e4:	5a00000a 	bpl	714 <drawObstacles+0x90>
            ob1[index].x = maxX - ob1[index].width;  
     6e8:	e1a03007 	mov	r3, r7
     6ec:	e493101c 	ldr	r1, [r3], #28
     6f0:	e5142008 	ldr	r2, [r4, #-8]
     6f4:	e0622001 	rsb	r2, r2, r1
     6f8:	e5042010 	str	r2, [r4, #-16]
            ob1[index].y = yLoc[index];  
     6fc:	e7933106 	ldr	r3, [r3, r6, lsl #2]
     700:	e504300c 	str	r3, [r4, #-12]
			finalScore++; 
     704:	e59a30a4 	ldr	r3, [r10, #164]	; 0xa4
     708:	e2833001 	add	r3, r3, #1
     70c:	e58a30a4 	str	r3, [r10, #164]	; 0xa4
     710:	eaffffff 	b	714 <drawObstacles+0x90>
        } else { 
            ob1[index].x -= ob1[index].speed;  
        } 
        drawBoxA(ob1[index].x, ob1[index].y, ob1[index].width, ob1[index].color);  
     714:	e5150010 	ldr	r0, [r5, #-16]
     718:	e515100c 	ldr	r1, [r5, #-12]
     71c:	e5152008 	ldr	r2, [r5, #-8]
     720:	e1d530f0 	ldrsh	r3, [r5]
     724:	ebffffce 	bl	664 <drawBoxA>
    } 
} 
 
 
void drawObstacles() { 
    for(int index = 0; index < totalObjects; index++) { 
     728:	e2866001 	add	r6, r6, #1
     72c:	e2844014 	add	r4, r4, #20
     730:	e5973008 	ldr	r3, [r7, #8]
     734:	e1530006 	cmp	r3, r6
     738:	caffffde 	bgt	6b8 <drawObstacles+0x34>
     73c:	e8bd85f8 	pop	{r3, r4, r5, r6, r7, r8, r10, pc}
     740:	000720f0 	.word	0x000720f0

00000744 <draw>:
			main(); 
		}
	}
}

void draw() { 
     744:	e92d4008 	push	{r3, lr}
	//clear_screen(); 
	drawObstacles(); 
     748:	ebffffcd 	bl	684 <drawObstacles>
     74c:	e8bd8008 	pop	{r3, pc}

00000750 <score>:
    int temp = *numberA; 
    *numberA = *numberB; 
    *numberB = temp;  
} 

void score(int value) { 
     750:	e92d0030 	push	{r4, r5}
    int digitNum = 0; 
    int digit = 0; 
    unsigned int hexCode; 
	unsigned int hexValue = 0;
	int i = 0;
    if (value > 9999) value = 9999; 
     754:	e302370f 	movw	r3, #9999	; 0x270f
     758:	e1500003 	cmp	r0, r3
     75c:	da000007 	ble	780 <score+0x30>
     760:	e1a00003 	mov	r0, r3
     764:	e3a02000 	mov	r2, #0
     768:	e1a01002 	mov	r1, r2
	//bool insertZero = false;
	//if(value % 10 == 0) insertZero = true; 
	
    while (value != 0) { 
        digit = value % 10; 
        hexCode = bitCodes[digit]; 
     76c:	e3014c18 	movw	r4, #7192	; 0x1c18
     770:	e3404007 	movt	r4, #7
	
	//bool insertZero = false;
	//if(value % 10 == 0) insertZero = true; 
	
    while (value != 0) { 
        digit = value % 10; 
     774:	e3065667 	movw	r5, #26215	; 0x6667
     778:	e3465666 	movt	r5, #26214	; 0x6666
     77c:	ea000003 	b	790 <score+0x40>
    if (value > 9999) value = 9999; 
	
	//bool insertZero = false;
	//if(value % 10 == 0) insertZero = true; 
	
    while (value != 0) { 
     780:	e3500000 	cmp	r0, #0
     784:	03a01000 	moveq	r1, #0
     788:	0a00000c 	beq	7c0 <score+0x70>
     78c:	eafffff4 	b	764 <score+0x14>
        digit = value % 10; 
     790:	e0cc3095 	smull	r3, r12, r5, r0
     794:	e1a03fc0 	asr	r3, r0, #31
     798:	e063314c 	rsb	r3, r3, r12, asr #2
     79c:	e083c103 	add	r12, r3, r3, lsl #2
     7a0:	e040008c 	sub	r0, r0, r12, lsl #1
        hexCode = bitCodes[digit]; 
     7a4:	e0840100 	add	r0, r4, r0, lsl #2
     7a8:	e590c03c 	ldr	r12, [r0, #60]	; 0x3c
        value = (int) value/10;
     7ac:	e1a00003 	mov	r0, r3
		hexCode = hexCode << 8*i;
		hexValue = hexValue + hexCode;
     7b0:	e081121c 	add	r1, r1, r12, lsl r2
     7b4:	e2822008 	add	r2, r2, #8
    if (value > 9999) value = 9999; 
	
	//bool insertZero = false;
	//if(value % 10 == 0) insertZero = true; 
	
    while (value != 0) { 
     7b8:	e3530000 	cmp	r3, #0
     7bc:	1afffff3 	bne	790 <score+0x40>
		hexCode = bitCodes[0];
		hexCode = hexCode << 8*i;
		hexValue = hexValue + hexCode;
	}*/
	
	*hexAddress = hexValue; 
     7c0:	e3013c18 	movw	r3, #7192	; 0x1c18
     7c4:	e3403007 	movt	r3, #7
     7c8:	e5933064 	ldr	r3, [r3, #100]	; 0x64
     7cc:	e5831000 	str	r1, [r3]
} 
     7d0:	e8bd0030 	pop	{r4, r5}
     7d4:	e12fff1e 	bx	lr

000007d8 <checkIfGameOver>:

bool checkIfGameOver(int rocketX, int rocketY, int height, int width) {
     7d8:	e92d40f8 	push	{r3, r4, r5, r6, r7, lr}
	for(int index = 0; index < totalObjects; index++) {
     7dc:	e301cc18 	movw	r12, #7192	; 0x1c18
     7e0:	e340c007 	movt	r12, #7
     7e4:	e59c7008 	ldr	r7, [r12, #8]
     7e8:	e3570000 	cmp	r7, #0
     7ec:	da000028 	ble	894 <checkIfGameOver+0xbc>
     7f0:	e3a0c000 	mov	r12, #0
     7f4:	e1a0400c 	mov	r4, r12
		if(ob1[index].x <= rocketX + width && (ob1[index].y >= rocketY && ob1[index].y <= rocketY + height)) {
     7f8:	e30260dc 	movw	r6, #8412	; 0x20dc
     7fc:	e3406007 	movt	r6, #7
     800:	e0803003 	add	r3, r0, r3
     804:	e0812002 	add	r2, r1, r2
     808:	e2865004 	add	r5, r6, #4
     80c:	e79c0005 	ldr	r0, [r12, r5]
     810:	e1500003 	cmp	r0, r3
     814:	ca000018 	bgt	87c <checkIfGameOver+0xa4>
	}*/
	
	*hexAddress = hexValue; 
} 

bool checkIfGameOver(int rocketX, int rocketY, int height, int width) {
     818:	e086500c 	add	r5, r6, r12
	for(int index = 0; index < totalObjects; index++) {
		if(ob1[index].x <= rocketX + width && (ob1[index].y >= rocketY && ob1[index].y <= rocketY + height)) {
     81c:	e5955008 	ldr	r5, [r5, #8]
     820:	e1550001 	cmp	r5, r1
     824:	ba000014 	blt	87c <checkIfGameOver+0xa4>
     828:	e1550002 	cmp	r5, r2
     82c:	ca000012 	bgt	87c <checkIfGameOver+0xa4>
			drawBoxA(ob1[index].x, ob1[index].y, ob1[index].width, 0x0000);
     830:	e30230dc 	movw	r3, #8412	; 0x20dc
     834:	e3403007 	movt	r3, #7
     838:	e1a06104 	lsl	r6, r4, #2
     83c:	e0864004 	add	r4, r6, r4
     840:	e0834104 	add	r4, r3, r4, lsl #2
     844:	e1a01005 	mov	r1, r5
     848:	e594200c 	ldr	r2, [r4, #12]
     84c:	e3a03000 	mov	r3, #0
     850:	ebffff83 	bl	664 <drawBoxA>
			ob1[index].x = maxX - ob1[index].width;  
     854:	e3013c18 	movw	r3, #7192	; 0x1c18
     858:	e3403007 	movt	r3, #7
     85c:	e6931006 	ldr	r1, [r3], r6
     860:	e594200c 	ldr	r2, [r4, #12]
     864:	e0622001 	rsb	r2, r2, r1
     868:	e5842004 	str	r2, [r4, #4]
            ob1[index].y = yLoc[index];
     86c:	e593301c 	ldr	r3, [r3, #28]
     870:	e5843008 	str	r3, [r4, #8]
			return 1; 
     874:	e3a00001 	mov	r0, #1
     878:	e8bd80f8 	pop	{r3, r4, r5, r6, r7, pc}
	
	*hexAddress = hexValue; 
} 

bool checkIfGameOver(int rocketX, int rocketY, int height, int width) {
	for(int index = 0; index < totalObjects; index++) {
     87c:	e2844001 	add	r4, r4, #1
     880:	e28cc014 	add	r12, r12, #20
     884:	e1540007 	cmp	r4, r7
     888:	1affffde 	bne	808 <checkIfGameOver+0x30>
			ob1[index].x = maxX - ob1[index].width;  
            ob1[index].y = yLoc[index];
			return 1; 
		}
	}
	return 0; 
     88c:	e3a00000 	mov	r0, #0
     890:	e8bd80f8 	pop	{r3, r4, r5, r6, r7, pc}
     894:	e3a00000 	mov	r0, #0
}	
     898:	e8bd80f8 	pop	{r3, r4, r5, r6, r7, pc}

0000089c <gameOver>:

void gameOver() {
     89c:	e92d41f0 	push	{r4, r5, r6, r7, r8, lr}
	for (int i = 0; i < 240; i++) {
     8a0:	e3a06000 	mov	r6, #0
		}
	}
	return 0; 
}	

void gameOver() {
     8a4:	e30676fa 	movw	r7, #26362	; 0x66fa
     8a8:	e3407002 	movt	r7, #2
     8ac:	e1a08006 	mov	r8, r6
     8b0:	ea000009 	b	8dc <gameOver+0x40>
	for (int i = 0; i < 240; i++) {
		for (int j = 0; j < 320; j++) {
			plot_pixel(j, i, GAMEOVER[i][j]);
     8b4:	e1a00004 	mov	r0, r4
     8b8:	e1a01006 	mov	r1, r6
     8bc:	e1f520f2 	ldrsh	r2, [r5, #2]!
     8c0:	ebfffe65 	bl	25c <plot_pixel>
	return 0; 
}	

void gameOver() {
	for (int i = 0; i < 240; i++) {
		for (int j = 0; j < 320; j++) {
     8c4:	e2844001 	add	r4, r4, #1
     8c8:	e3540d05 	cmp	r4, #320	; 0x140
     8cc:	1afffff8 	bne	8b4 <gameOver+0x18>
	}
	return 0; 
}	

void gameOver() {
	for (int i = 0; i < 240; i++) {
     8d0:	e2866001 	add	r6, r6, #1
     8d4:	e35600f0 	cmp	r6, #240	; 0xf0
     8d8:	08bd81f0 	popeq	{r4, r5, r6, r7, r8, pc}
		}
	}
	return 0; 
}	

void gameOver() {
     8dc:	e0865106 	add	r5, r6, r6, lsl #2
     8e0:	e0875385 	add	r5, r7, r5, lsl #7
     8e4:	e2455002 	sub	r5, r5, #2
     8e8:	e1a04008 	mov	r4, r8
     8ec:	eafffff0 	b	8b4 <gameOver+0x18>

000008f0 <start_screen>:
			plot_pixel(j, i, GAMEOVER[i][j]);
		}
	}
}

void start_screen() {
     8f0:	e92d41f0 	push	{r4, r5, r6, r7, r8, lr}
	for (int i = 0; i < 240; i++) {
     8f4:	e3a06000 	mov	r6, #0
			plot_pixel(j, i, GAMEOVER[i][j]);
		}
	}
}

void start_screen() {
     8f8:	e30b7efe 	movw	r7, #48894	; 0xbefe
     8fc:	e3407004 	movt	r7, #4
     900:	e1a08006 	mov	r8, r6
     904:	ea000009 	b	930 <start_screen+0x40>
	for (int i = 0; i < 240; i++) {
		for (int j = 0; j < 320; j++) {
			plot_pixel(j, i, START[i][j]);
     908:	e1a00004 	mov	r0, r4
     90c:	e1a01006 	mov	r1, r6
     910:	e1f520f2 	ldrsh	r2, [r5, #2]!
     914:	ebfffe50 	bl	25c <plot_pixel>
	}
}

void start_screen() {
	for (int i = 0; i < 240; i++) {
		for (int j = 0; j < 320; j++) {
     918:	e2844001 	add	r4, r4, #1
     91c:	e3540d05 	cmp	r4, #320	; 0x140
     920:	1afffff8 	bne	908 <start_screen+0x18>
		}
	}
}

void start_screen() {
	for (int i = 0; i < 240; i++) {
     924:	e2866001 	add	r6, r6, #1
     928:	e35600f0 	cmp	r6, #240	; 0xf0
     92c:	08bd81f0 	popeq	{r4, r5, r6, r7, r8, pc}
			plot_pixel(j, i, GAMEOVER[i][j]);
		}
	}
}

void start_screen() {
     930:	e0865106 	add	r5, r6, r6, lsl #2
     934:	e0875385 	add	r5, r7, r5, lsl #7
     938:	e2455002 	sub	r5, r5, #2
     93c:	e1a04008 	mov	r4, r8
     940:	eafffff0 	b	908 <start_screen+0x18>

00000944 <main>:
void score(int value);
bool checkIfGameOver(int rocketX, int rocketY, int height, int width); 
void gameOver();
void start_screen();

int main () {
     944:	e92d4ff8 	push	{r3, r4, r5, r6, r7, r8, r9, r10, r11, lr}
    volatile int* RLEDs = (int*) 0xFF200000;
    volatile int* pixelCtrlPtr = (int*) 0xFF203020;
    volatile int* keyPtr = (int*) 0xFF20005C;

    *(pixelCtrlPtr + 1) = 0xC8000000;
     948:	e3034fff 	movw	r4, #16383	; 0x3fff
     94c:	e34f4f20 	movt	r4, #65312	; 0xff20
     950:	e3a03332 	mov	r3, #-939524096	; 0xc8000000
     954:	e5043fdb 	str	r3, [r4, #-4059]	; 0xfffff025
	wait_for_vsync();
     958:	ebfffe6b 	bl	30c <wait_for_vsync>
	pixelbuf = *pixelCtrlPtr;
     95c:	e5142fdf 	ldr	r2, [r4, #-4063]	; 0xfffff021
     960:	e30230dc 	movw	r3, #8412	; 0x20dc
     964:	e3403007 	movt	r3, #7
     968:	e58320a8 	str	r2, [r3, #168]	; 0xa8
	pixelBufferStart = *pixelCtrlPtr; 
     96c:	e5142fdf 	ldr	r2, [r4, #-4063]	; 0xfffff021
     970:	e5832000 	str	r2, [r3]

    int rocketPositionY = 0;
    int rocketPositionX = 2;
    int prevY = rocketPositionY;
    int keyChange = 0;
	finalScore = 0; 
     974:	e3a02000 	mov	r2, #0
     978:	e58320a4 	str	r2, [r3, #164]	; 0xa4
	shield = 7;
     97c:	e3014c18 	movw	r4, #7192	; 0x1c18
     980:	e3404007 	movt	r4, #7
     984:	e3a03007 	mov	r3, #7
     988:	e5843068 	str	r3, [r4, #104]	; 0x68
	createObstacles();
     98c:	ebfffea8 	bl	434 <createObstacles>
	
    start_screen(); 
     990:	ebffffd6 	bl	8f0 <start_screen>
	*hexAddress = (0b00111111001111110011111100111111);
     994:	e5942064 	ldr	r2, [r4, #100]	; 0x64
     998:	e3033f3f 	movw	r3, #16191	; 0x3f3f
     99c:	e7df3813 	bfi	r3, r3, #16, #16
     9a0:	e5823000 	str	r3, [r2]
	
	while(1) {
		keyData = *(keyPtr);
     9a4:	e3a02000 	mov	r2, #0
     9a8:	e34f2f20 	movt	r2, #65312	; 0xff20
     9ac:	e592305c 	ldr	r3, [r2, #92]	; 0x5c
		if(keyData != 0) {
     9b0:	e31300ff 	tst	r3, #255	; 0xff
     9b4:	0afffffc 	beq	9ac <main+0x68>
			*(keyPtr) = keyData; 
     9b8:	e6ef2073 	uxtb	r2, r3
     9bc:	e3a03000 	mov	r3, #0
     9c0:	e34f3f20 	movt	r3, #65312	; 0xff20
     9c4:	e583205c 	str	r2, [r3, #92]	; 0x5c
			break; 
		}
	}
	
	clear_screen(); 
     9c8:	ebfffe32 	bl	298 <clear_screen>
	pixelBufferStart = *pixelCtrlPtr; 
    unsigned char keyData;

    int rocketPositionY = 0;
    int rocketPositionX = 2;
    int prevY = rocketPositionY;
     9cc:	e3a0a000 	mov	r10, #0
	wait_for_vsync();
	pixelbuf = *pixelCtrlPtr;
	pixelBufferStart = *pixelCtrlPtr; 
    unsigned char keyData;

    int rocketPositionY = 0;
     9d0:	e1a0500a 	mov	r5, r10
	}
	
	clear_screen(); 
	
    while (1) {
		keyData = *(keyPtr);			
     9d4:	e1a0400a 	mov	r4, r10
     9d8:	e34f4f20 	movt	r4, #65312	; 0xff20
			*(keyPtr) = 2;
			keyChange = 1;
		}

		if(keyChange) {
			clearRocket(rocketPositionX, prevY);
     9dc:	e3a07002 	mov	r7, #2
    while (1) {
		keyData = *(keyPtr);			
		if (keyData == 1) {
			rocketPositionY -= 5;
			if (rocketPositionY < 0) rocketPositionY = 0;
			*(keyPtr) = 1;
     9e0:	e3a0b001 	mov	r11, #1
			keyChange = 0;
		}
		draw(); 
		drawRocket(rocketPositionX, rocketPositionY);
		
		score(finalScore);
     9e4:	e30280dc 	movw	r8, #8412	; 0x20dc
     9e8:	e3408007 	movt	r8, #7
		
		if(checkIfGameOver(rocketPositionX, rocketPositionY, 15, 40)) {
     9ec:	e3a0900f 	mov	r9, #15
			shield = shield - 1; 
     9f0:	e3016c18 	movw	r6, #7192	; 0x1c18
     9f4:	e3406007 	movt	r6, #7
	}
	
	clear_screen(); 
	
    while (1) {
		keyData = *(keyPtr);			
     9f8:	e594305c 	ldr	r3, [r4, #92]	; 0x5c
     9fc:	e6ef3073 	uxtb	r3, r3
		if (keyData == 1) {
     a00:	e3530001 	cmp	r3, #1
			rocketPositionY -= 5;
     a04:	02455005 	subeq	r5, r5, #5
     a08:	01c55fc5 	biceq	r5, r5, r5, asr #31
			if (rocketPositionY < 0) rocketPositionY = 0;
			*(keyPtr) = 1;
     a0c:	0584b05c 	streq	r11, [r4, #92]	; 0x5c
     a10:	0a00004e 	beq	b50 <main+0x20c>
			keyChange = 1;
		} else if (keyData == 2) {
     a14:	e3530002 	cmp	r3, #2
     a18:	1a000004 	bne	a30 <main+0xec>
			rocketPositionY += 5;
     a1c:	e2855005 	add	r5, r5, #5
     a20:	e35500e1 	cmp	r5, #225	; 0xe1
     a24:	a3a050e1 	movge	r5, #225	; 0xe1
			if (rocketPositionY > 225) rocketPositionY = 225;
			*(keyPtr) = 2;
     a28:	e584705c 	str	r7, [r4, #92]	; 0x5c
     a2c:	ea000047 	b	b50 <main+0x20c>
		if(keyChange) {
			clearRocket(rocketPositionX, prevY);
			prevY = rocketPositionY;
			keyChange = 0;
		}
		draw(); 
     a30:	ebffff43 	bl	744 <draw>
		drawRocket(rocketPositionX, rocketPositionY);
     a34:	e1a00007 	mov	r0, r7
     a38:	e1a01005 	mov	r1, r5
     a3c:	ebfffe3f 	bl	340 <drawRocket>
		
		score(finalScore);
     a40:	e59800a4 	ldr	r0, [r8, #164]	; 0xa4
     a44:	ebffff41 	bl	750 <score>
		
		if(checkIfGameOver(rocketPositionX, rocketPositionY, 15, 40)) {
     a48:	e1a00007 	mov	r0, r7
     a4c:	e1a01005 	mov	r1, r5
     a50:	e1a02009 	mov	r2, r9
     a54:	e3a03028 	mov	r3, #40	; 0x28
     a58:	ebffff5e 	bl	7d8 <checkIfGameOver>
     a5c:	e3500000 	cmp	r0, #0
     a60:	0a000004 	beq	a78 <main+0x134>
			shield = shield - 1; 
     a64:	e5963068 	ldr	r3, [r6, #104]	; 0x68
     a68:	e2433001 	sub	r3, r3, #1
     a6c:	e5863068 	str	r3, [r6, #104]	; 0x68
			if(shield < 0) break; 
     a70:	e3530000 	cmp	r3, #0
     a74:	ba000026 	blt	b14 <main+0x1d0>
		}
		
		if(shield == 7) *RLEDs = 127;
     a78:	e5963068 	ldr	r3, [r6, #104]	; 0x68
     a7c:	e3530007 	cmp	r3, #7
     a80:	03a0307f 	moveq	r3, #127	; 0x7f
     a84:	05843000 	streq	r3, [r4]
     a88:	0a00001f 	beq	b0c <main+0x1c8>
		else if(shield == 6) *RLEDs = 63;
     a8c:	e3530006 	cmp	r3, #6
     a90:	03a0303f 	moveq	r3, #63	; 0x3f
     a94:	05843000 	streq	r3, [r4]
     a98:	0a00001b 	beq	b0c <main+0x1c8>
		else if(shield == 5) *RLEDs = 31;
     a9c:	e3530005 	cmp	r3, #5
     aa0:	03a0301f 	moveq	r3, #31
     aa4:	05843000 	streq	r3, [r4]
     aa8:	0a000017 	beq	b0c <main+0x1c8>
		else if(shield == 4) *RLEDs = 15;
     aac:	e3530004 	cmp	r3, #4
     ab0:	05849000 	streq	r9, [r4]
     ab4:	0a000014 	beq	b0c <main+0x1c8>
		else if(shield == 3) *RLEDs = 7; 
     ab8:	e3530003 	cmp	r3, #3
     abc:	03a03007 	moveq	r3, #7
     ac0:	05843000 	streq	r3, [r4]
     ac4:	0a000010 	beq	b0c <main+0x1c8>
		else if(shield == 2) *RLEDs = 3;
     ac8:	e3530002 	cmp	r3, #2
     acc:	03a03003 	moveq	r3, #3
     ad0:	05843000 	streq	r3, [r4]
     ad4:	0a00000c 	beq	b0c <main+0x1c8>
		else if(shield == 1) *RLEDs = 1;
     ad8:	e3530001 	cmp	r3, #1
     adc:	0584b000 	streq	r11, [r4]
     ae0:	0a000009 	beq	b0c <main+0x1c8>
		else if(shield == 0) *RLEDs = 0; 
     ae4:	e3530000 	cmp	r3, #0
     ae8:	05843000 	streq	r3, [r4]
     aec:	0a000006 	beq	b0c <main+0x1c8>
		else if(shield < 0) {
     af0:	e3530000 	cmp	r3, #0
     af4:	aa000004 	bge	b0c <main+0x1c8>
			*RLEDs = 0;
     af8:	e3a03000 	mov	r3, #0
     afc:	e34f3f20 	movt	r3, #65312	; 0xff20
     b00:	e3a02000 	mov	r2, #0
     b04:	e5832000 	str	r2, [r3]
			break; 
     b08:	ea000001 	b	b14 <main+0x1d0>
		}
		
		
		wait_for_vsync(); 
     b0c:	ebfffdfe 	bl	30c <wait_for_vsync>
		//pixelBufferStart = *(pixelCtrlPtr + 1); // new back buffer
    }
     b10:	eaffffb8 	b	9f8 <main+0xb4>
	
	*RLEDs = 0;
     b14:	e3a03000 	mov	r3, #0
     b18:	e34f3f20 	movt	r3, #65312	; 0xff20
     b1c:	e3a02000 	mov	r2, #0
     b20:	e5832000 	str	r2, [r3]
	gameOver();
     b24:	ebffff5c 	bl	89c <gameOver>
	
	while(1) {
		keyData = *(keyPtr);
     b28:	e3a02000 	mov	r2, #0
     b2c:	e34f2f20 	movt	r2, #65312	; 0xff20
     b30:	e592305c 	ldr	r3, [r2, #92]	; 0x5c
		if(keyData != 0) {
     b34:	e31300ff 	tst	r3, #255	; 0xff
     b38:	0afffffc 	beq	b30 <main+0x1ec>
			*(keyPtr) = keyData; 
     b3c:	e6ef3073 	uxtb	r3, r3
     b40:	e3a02000 	mov	r2, #0
     b44:	e34f2f20 	movt	r2, #65312	; 0xff20
     b48:	e582305c 	str	r3, [r2, #92]	; 0x5c
			main(); 
     b4c:	ebffff7c 	bl	944 <main>
			*(keyPtr) = 2;
			keyChange = 1;
		}

		if(keyChange) {
			clearRocket(rocketPositionX, prevY);
     b50:	e1a00007 	mov	r0, r7
     b54:	e1a0100a 	mov	r1, r10
     b58:	ebfffe12 	bl	3a8 <clearRocket>
     b5c:	e1a0a005 	mov	r10, r5
     b60:	eaffffb2 	b	a30 <main+0xec>

00000b64 <ROCKET>:
     b64:	01a08c04 	.word	0x01a08c04
     b68:	08840884 	.word	0x08840884
     b6c:	08840884 	.word	0x08840884
     b70:	08840884 	.word	0x08840884
     b74:	08840884 	.word	0x08840884
     b78:	08840884 	.word	0x08840884
     b7c:	08840884 	.word	0x08840884
     b80:	ffff0884 	.word	0xffff0884
     b84:	632dc635 	.word	0x632dc635
     b88:	8c30738e 	.word	0x8c30738e
     b8c:	ffffb555 	.word	0xffffb555
     b90:	08840884 	.word	0x08840884
     b94:	08840884 	.word	0x08840884
     b98:	08840884 	.word	0x08840884
     b9c:	08840884 	.word	0x08840884
     ba0:	08840884 	.word	0x08840884
     ba4:	08840884 	.word	0x08840884
     ba8:	08840884 	.word	0x08840884
     bac:	08840884 	.word	0x08840884
     bb0:	08840884 	.word	0x08840884
     bb4:	08840884 	.word	0x08840884
     bb8:	08840884 	.word	0x08840884
     bbc:	08840884 	.word	0x08840884
     bc0:	08840884 	.word	0x08840884
     bc4:	fffb0884 	.word	0xfffb0884
     bc8:	7a08fa80 	.word	0x7a08fa80
     bcc:	84108431 	.word	0x84108431
     bd0:	7bef8410 	.word	0x7bef8410
     bd4:	f7be630c 	.word	0xf7be630c
     bd8:	08840884 	.word	0x08840884
     bdc:	08840884 	.word	0x08840884
     be0:	08840884 	.word	0x08840884
     be4:	08840884 	.word	0x08840884
     be8:	08840884 	.word	0x08840884
     bec:	08840884 	.word	0x08840884
     bf0:	08840884 	.word	0x08840884
     bf4:	08840884 	.word	0x08840884
     bf8:	08840884 	.word	0x08840884
     bfc:	08840884 	.word	0x08840884
     c00:	08840884 	.word	0x08840884
     c04:	08840884 	.word	0x08840884
     c08:	08840884 	.word	0x08840884
     c0c:	fff30884 	.word	0xfff30884
     c10:	845293aa 	.word	0x845293aa
     c14:	83ae8c51 	.word	0x83ae8c51
     c18:	7baf73ae 	.word	0x7baf73ae
     c1c:	ce797bcf 	.word	0xce797bcf
     c20:	ffffe6fc 	.word	0xffffe6fc
     c24:	08840884 	.word	0x08840884
     c28:	08840884 	.word	0x08840884
     c2c:	08840884 	.word	0x08840884
     c30:	08840884 	.word	0x08840884
     c34:	08840884 	.word	0x08840884
     c38:	08840884 	.word	0x08840884
     c3c:	08840884 	.word	0x08840884
     c40:	08840884 	.word	0x08840884
     c44:	08840884 	.word	0x08840884
     c48:	ff980884 	.word	0xff980884
     c4c:	ff42ff0b 	.word	0xff42ff0b
     c50:	fe00ff20 	.word	0xfe00ff20
     c54:	fe20fda0 	.word	0xfe20fda0
     c58:	38003903 	.word	0x38003903
     c5c:	29863082 	.word	0x29863082
     c60:	29452966 	.word	0x29452966
     c64:	21042104 	.word	0x21042104
     c68:	18e318c3 	.word	0x18e318c3
     c6c:	632d39e7 	.word	0x632d39e7
     c70:	c6189492 	.word	0xc6189492
     c74:	0884ffff 	.word	0x0884ffff
     c78:	08840884 	.word	0x08840884
     c7c:	08840884 	.word	0x08840884
     c80:	ff960884 	.word	0xff960884
     c84:	ffb2fff9 	.word	0xffb2fff9
     c88:	ff76ffb7 	.word	0xff76ffb7
     c8c:	ff40ff6a 	.word	0xff40ff6a
     c90:	ff40ff80 	.word	0xff40ff80
     c94:	fae0fca0 	.word	0xfae0fca0
     c98:	5020d221 	.word	0x5020d221
     c9c:	49256185 	.word	0x49256185
     ca0:	31a748c3 	.word	0x31a748c3
     ca4:	39c731a7 	.word	0x39c731a7
     ca8:	39c739c7 	.word	0x39c739c7
     cac:	39c739c7 	.word	0x39c739c7
     cb0:	29452104 	.word	0x29452104
     cb4:	212510a3 	.word	0x212510a3
     cb8:	20822125 	.word	0x20822125
     cbc:	93ae50a3 	.word	0x93ae50a3
     cc0:	0884e73c 	.word	0x0884e73c
     cc4:	08840884 	.word	0x08840884
     cc8:	08840884 	.word	0x08840884
     ccc:	ffb60884 	.word	0xffb60884
     cd0:	fd00ff20 	.word	0xfd00ff20
     cd4:	f9c0f9a0 	.word	0xf9c0f9a0
     cd8:	fba0fa20 	.word	0xfba0fa20
     cdc:	3000fc80 	.word	0x3000fc80
     ce0:	7bf04821 	.word	0x7bf04821
     ce4:	7b8e7baf 	.word	0x7b8e7baf
     ce8:	4a086b0c 	.word	0x4a086b0c
     cec:	420839e7 	.word	0x420839e7
     cf0:	42084208 	.word	0x42084208
     cf4:	bdf82924 	.word	0xbdf82924
     cf8:	ffffffff 	.word	0xffffffff
     cfc:	3a292965 	.word	0x3a292965
     d00:	70008000 	.word	0x70008000
     d04:	48006000 	.word	0x48006000
     d08:	088461a7 	.word	0x088461a7
     d0c:	08840884 	.word	0x08840884
     d10:	08840884 	.word	0x08840884
     d14:	fff00884 	.word	0xfff00884
     d18:	fb20ffc0 	.word	0xfb20ffc0
     d1c:	f800f800 	.word	0xf800f800
     d20:	f3e0fa00 	.word	0xf3e0fa00
     d24:	61454000 	.word	0x61454000
     d28:	84108471 	.word	0x84108471
     d2c:	94928410 	.word	0x94928410
     d30:	526a9cd3 	.word	0x526a9cd3
     d34:	420839e7 	.word	0x420839e7
     d38:	4a4939e7 	.word	0x4a4939e7
     d3c:	ffffffff 	.word	0xffffffff
     d40:	9492ffff 	.word	0x9492ffff
     d44:	88004125 	.word	0x88004125
     d48:	80008000 	.word	0x80008000
     d4c:	70008000 	.word	0x70008000
     d50:	088469a6 	.word	0x088469a6
     d54:	08840884 	.word	0x08840884
     d58:	08840884 	.word	0x08840884
     d5c:	ffeffffe 	.word	0xffeffffe
     d60:	fce0ffa0 	.word	0xfce0ffa0
     d64:	f8e0fa40 	.word	0xf8e0fa40
     d68:	3000fb00 	.word	0x3000fb00
     d6c:	84925022 	.word	0x84925022
     d70:	84518451 	.word	0x84518451
     d74:	736e8c31 	.word	0x736e8c31
     d78:	41e841e8 	.word	0x41e841e8
     d7c:	41e84208 	.word	0x41e84208
     d80:	ffff3186 	.word	0xffff3186
     d84:	ffffffff 	.word	0xffffffff
     d88:	49256b6d 	.word	0x49256b6d
     d8c:	80008800 	.word	0x80008800
     d90:	80008000 	.word	0x80008000
     d94:	70418000 	.word	0x70418000
     d98:	08840884 	.word	0x08840884
     d9c:	08840884 	.word	0x08840884
     da0:	08840884 	.word	0x08840884
     da4:	fff80884 	.word	0xfff80884
     da8:	ffc1ffe9 	.word	0xffc1ffe9
     dac:	ffa0ff20 	.word	0xffa0ff20
     db0:	7920d580 	.word	0x7920d580
     db4:	69a772c8 	.word	0x69a772c8
     db8:	3a086104 	.word	0x3a086104
     dbc:	41e839c7 	.word	0x41e839c7
     dc0:	42084208 	.word	0x42084208
     dc4:	31864208 	.word	0x31864208
     dc8:	ce7b62ec 	.word	0xce7b62ec
     dcc:	29258452 	.word	0x29258452
     dd0:	88004208 	.word	0x88004208
     dd4:	80008000 	.word	0x80008000
     dd8:	70418841 	.word	0x70418841
     ddc:	0884dedb 	.word	0x0884dedb
     de0:	08840884 	.word	0x08840884
     de4:	08840884 	.word	0x08840884
     de8:	08840884 	.word	0x08840884
     dec:	08840884 	.word	0x08840884
     df0:	fffbfffd 	.word	0xfffbfffd
     df4:	fff7fff7 	.word	0xfff7fff7
     df8:	dc45ff33 	.word	0xdc45ff33
     dfc:	50003800 	.word	0x50003800
     e00:	39e74145 	.word	0x39e74145
     e04:	39e739c7 	.word	0x39e739c7
     e08:	39c739c7 	.word	0x39c739c7
     e0c:	316639c7 	.word	0x316639c7
     e10:	212420e4 	.word	0x212420e4
     e14:	29863186 	.word	0x29863186
     e18:	70414000 	.word	0x70414000
     e1c:	b4f4926a 	.word	0xb4f4926a
     e20:	08840884 	.word	0x08840884
     e24:	08840884 	.word	0x08840884
     e28:	08840884 	.word	0x08840884
     e2c:	08840884 	.word	0x08840884
     e30:	08840884 	.word	0x08840884
     e34:	08840884 	.word	0x08840884
     e38:	08840884 	.word	0x08840884
     e3c:	ffef0884 	.word	0xffef0884
     e40:	72cb3000 	.word	0x72cb3000
     e44:	72cb7bae 	.word	0x72cb7bae
     e48:	632c632c 	.word	0x632c632c
     e4c:	5acb4a49 	.word	0x5acb4a49
     e50:	736e62ec 	.word	0x736e62ec
     e54:	94927bcf 	.word	0x94927bcf
     e58:	c618ad55 	.word	0xc618ad55
     e5c:	0884e71c 	.word	0x0884e71c
     e60:	08840884 	.word	0x08840884
     e64:	08840884 	.word	0x08840884
     e68:	08840884 	.word	0x08840884
     e6c:	08840884 	.word	0x08840884
     e70:	08840884 	.word	0x08840884
     e74:	08840884 	.word	0x08840884
     e78:	08840884 	.word	0x08840884
     e7c:	08840884 	.word	0x08840884
     e80:	fff10884 	.word	0xfff10884
     e84:	3800e840 	.word	0x3800e840
     e88:	84318431 	.word	0x84318431
     e8c:	84308410 	.word	0x84308410
     e90:	0884738e 	.word	0x0884738e
     e94:	08840884 	.word	0x08840884
     e98:	08840884 	.word	0x08840884
     e9c:	08840884 	.word	0x08840884
     ea0:	08840884 	.word	0x08840884
     ea4:	08840884 	.word	0x08840884
     ea8:	08840884 	.word	0x08840884
     eac:	08840884 	.word	0x08840884
     eb0:	08840884 	.word	0x08840884
     eb4:	08840884 	.word	0x08840884
     eb8:	08840884 	.word	0x08840884
     ebc:	08840884 	.word	0x08840884
     ec0:	08840884 	.word	0x08840884
     ec4:	08840884 	.word	0x08840884
     ec8:	fffb0884 	.word	0xfffb0884
     ecc:	62696187 	.word	0x62696187
     ed0:	843073ae 	.word	0x843073ae
     ed4:	0884ad55 	.word	0x0884ad55
     ed8:	08840884 	.word	0x08840884
     edc:	08840884 	.word	0x08840884
     ee0:	08840884 	.word	0x08840884
     ee4:	08840884 	.word	0x08840884
     ee8:	08840884 	.word	0x08840884
     eec:	08840884 	.word	0x08840884
     ef0:	08840884 	.word	0x08840884
     ef4:	0884      	.short	0x0884

00000ef6 <BACKGROUND>:
     ef6:	0004      	.short	0x0004
     ef8:	08841e05 	.word	0x08841e05
     efc:	08840884 	.word	0x08840884
     f00:	08840884 	.word	0x08840884
     f04:	08840884 	.word	0x08840884
     f08:	08840884 	.word	0x08840884
     f0c:	08840884 	.word	0x08840884
     f10:	08840884 	.word	0x08840884
     f14:	08840884 	.word	0x08840884
     f18:	08840884 	.word	0x08840884
     f1c:	08840884 	.word	0x08840884
     f20:	08840884 	.word	0x08840884
     f24:	08840884 	.word	0x08840884
     f28:	08840884 	.word	0x08840884
     f2c:	08840884 	.word	0x08840884
     f30:	08840884 	.word	0x08840884
     f34:	08840884 	.word	0x08840884
     f38:	08840884 	.word	0x08840884
     f3c:	08840884 	.word	0x08840884
     f40:	08840884 	.word	0x08840884
     f44:	08840884 	.word	0x08840884
     f48:	08840884 	.word	0x08840884
     f4c:	08840884 	.word	0x08840884
     f50:	08840884 	.word	0x08840884
     f54:	08840884 	.word	0x08840884
     f58:	08830884 	.word	0x08830884
     f5c:	08830884 	.word	0x08830884
     f60:	08840884 	.word	0x08840884
     f64:	08a40884 	.word	0x08a40884
     f68:	08840883 	.word	0x08840883
     f6c:	08840884 	.word	0x08840884
     f70:	08840884 	.word	0x08840884
     f74:	08840884 	.word	0x08840884
     f78:	08840884 	.word	0x08840884
     f7c:	08840884 	.word	0x08840884
     f80:	08840884 	.word	0x08840884
     f84:	08840884 	.word	0x08840884
     f88:	08840884 	.word	0x08840884
     f8c:	11060084 	.word	0x11060084
     f90:	08c51927 	.word	0x08c51927
     f94:	00a500a5 	.word	0x00a500a5
     f98:	088300c5 	.word	0x088300c5
     f9c:	10840884 	.word	0x10840884
     fa0:	088410a5 	.word	0x088410a5
     fa4:	10a50864 	.word	0x10a50864
     fa8:	08c408a4 	.word	0x08c408a4
     fac:	108410a4 	.word	0x108410a4
     fb0:	08c410a4 	.word	0x08c410a4
     fb4:	10a500c5 	.word	0x10a500c5
     fb8:	18851885 	.word	0x18851885
     fbc:	08c410a4 	.word	0x08c410a4
     fc0:	08c508e4 	.word	0x08c508e4
     fc4:	18a310a5 	.word	0x18a310a5
     fc8:	10c518a3 	.word	0x10c518a3
     fcc:	222f090a 	.word	0x222f090a
     fd0:	10c400c8 	.word	0x10c400c8
     fd4:	20a318a2 	.word	0x20a318a2
     fd8:	090520a6 	.word	0x090520a6
     fdc:	18a510c5 	.word	0x18a510c5
     fe0:	18a518a5 	.word	0x18a518a5
     fe4:	20a420a4 	.word	0x20a420a4
     fe8:	10c610a5 	.word	0x10c610a5
     fec:	208418c5 	.word	0x208418c5
     ff0:	29ec1885 	.word	0x29ec1885
     ff4:	08e60129 	.word	0x08e60129
     ff8:	20a42083 	.word	0x20a42083
     ffc:	20c420a3 	.word	0x20c420a3
    1000:	10c518c5 	.word	0x10c518c5
    1004:	188418a5 	.word	0x188418a5
    1008:	10c718a6 	.word	0x10c718a6
    100c:	10a5298a 	.word	0x10a5298a
    1010:	18a320a4 	.word	0x18a320a4
    1014:	18a418c4 	.word	0x18a418c4
    1018:	18841884 	.word	0x18841884
    101c:	18e62106 	.word	0x18e62106
    1020:	20a510c5 	.word	0x20a510c5
    1024:	20a42064 	.word	0x20a42064
    1028:	21061884 	.word	0x21061884
    102c:	20a51884 	.word	0x20a51884
    1030:	20a32083 	.word	0x20a32083
    1034:	18c520c4 	.word	0x18c520c4
    1038:	188418a5 	.word	0x188418a5
    103c:	20a420c5 	.word	0x20a420c5
    1040:	18841884 	.word	0x18841884
    1044:	188420c5 	.word	0x188420c5
    1048:	20a42084 	.word	0x20a42084
    104c:	20c51863 	.word	0x20c51863
    1050:	20c51884 	.word	0x20c51884
    1054:	28e520a4 	.word	0x28e520a4
    1058:	210520c5 	.word	0x210520c5
    105c:	29472126 	.word	0x29472126
    1060:	29a82967 	.word	0x29a82967
    1064:	3aab322a 	.word	0x3aab322a
    1068:	3acc42ed 	.word	0x3acc42ed
    106c:	29e9326a 	.word	0x29e9326a
    1070:	29462967 	.word	0x29462967
    1074:	20e52906 	.word	0x20e52906
    1078:	20a420c4 	.word	0x20a420c4
    107c:	20832083 	.word	0x20832083
    1080:	18631863 	.word	0x18631863
    1084:	18421863 	.word	0x18421863
    1088:	18421842 	.word	0x18421842
    108c:	18421842 	.word	0x18421842
    1090:	18421842 	.word	0x18421842
    1094:	18421842 	.word	0x18421842
    1098:	18421842 	.word	0x18421842
    109c:	18421842 	.word	0x18421842
    10a0:	18421842 	.word	0x18421842
    10a4:	18421842 	.word	0x18421842
    10a8:	18421842 	.word	0x18421842
    10ac:	18421842 	.word	0x18421842
    10b0:	18421842 	.word	0x18421842
    10b4:	18421842 	.word	0x18421842
    10b8:	18421842 	.word	0x18421842
    10bc:	18421842 	.word	0x18421842
    10c0:	18221842 	.word	0x18221842
    10c4:	18221822 	.word	0x18221822
    10c8:	18421822 	.word	0x18421822
    10cc:	18221822 	.word	0x18221822
    10d0:	18221822 	.word	0x18221822
    10d4:	18211822 	.word	0x18211822
    10d8:	18211821 	.word	0x18211821
    10dc:	18211821 	.word	0x18211821
    10e0:	18211821 	.word	0x18211821
    10e4:	18211821 	.word	0x18211821
    10e8:	10211001 	.word	0x10211001
    10ec:	10211021 	.word	0x10211021
    10f0:	10211021 	.word	0x10211021
    10f4:	10211021 	.word	0x10211021
    10f8:	10211021 	.word	0x10211021
    10fc:	10211021 	.word	0x10211021
    1100:	10211021 	.word	0x10211021
    1104:	10211021 	.word	0x10211021
    1108:	10211021 	.word	0x10211021
    110c:	10211021 	.word	0x10211021
    1110:	10211021 	.word	0x10211021
    1114:	10211021 	.word	0x10211021
    1118:	10211021 	.word	0x10211021
    111c:	10211021 	.word	0x10211021
    1120:	08211021 	.word	0x08211021
    1124:	08200820 	.word	0x08200820
    1128:	10200820 	.word	0x10200820
    112c:	10001020 	.word	0x10001020
    1130:	10201000 	.word	0x10201000
    1134:	08011001 	.word	0x08011001
    1138:	08010801 	.word	0x08010801
    113c:	08010801 	.word	0x08010801
    1140:	08000800 	.word	0x08000800
    1144:	08000800 	.word	0x08000800
    1148:	08000800 	.word	0x08000800
    114c:	08000800 	.word	0x08000800
    1150:	08000800 	.word	0x08000800
    1154:	08010801 	.word	0x08010801
    1158:	08000801 	.word	0x08000801
    115c:	08000800 	.word	0x08000800
    1160:	08000800 	.word	0x08000800
    1164:	08000800 	.word	0x08000800
    1168:	08000800 	.word	0x08000800
    116c:	08000800 	.word	0x08000800
    1170:	08000800 	.word	0x08000800
    1174:	08000800 	.word	0x08000800
    1178:	08840800 	.word	0x08840800
    117c:	08840884 	.word	0x08840884
    1180:	08840884 	.word	0x08840884
    1184:	08840884 	.word	0x08840884
    1188:	08840884 	.word	0x08840884
    118c:	08840884 	.word	0x08840884
    1190:	08840884 	.word	0x08840884
    1194:	08840884 	.word	0x08840884
    1198:	08840884 	.word	0x08840884
    119c:	08840884 	.word	0x08840884
    11a0:	08840884 	.word	0x08840884
    11a4:	08840884 	.word	0x08840884
    11a8:	08840884 	.word	0x08840884
    11ac:	08840884 	.word	0x08840884
    11b0:	08840884 	.word	0x08840884
    11b4:	08840884 	.word	0x08840884
    11b8:	08840884 	.word	0x08840884
    11bc:	08840884 	.word	0x08840884
    11c0:	08840884 	.word	0x08840884
    11c4:	08840884 	.word	0x08840884
    11c8:	08840884 	.word	0x08840884
    11cc:	08840884 	.word	0x08840884
    11d0:	08840884 	.word	0x08840884
    11d4:	08840884 	.word	0x08840884
    11d8:	08830884 	.word	0x08830884
    11dc:	08830884 	.word	0x08830884
    11e0:	08840884 	.word	0x08840884
    11e4:	08a40884 	.word	0x08a40884
    11e8:	08840883 	.word	0x08840883
    11ec:	08840884 	.word	0x08840884
    11f0:	08840884 	.word	0x08840884
    11f4:	08840884 	.word	0x08840884
    11f8:	08840884 	.word	0x08840884
    11fc:	08840884 	.word	0x08840884
    1200:	08840884 	.word	0x08840884
    1204:	08840884 	.word	0x08840884
    1208:	08840884 	.word	0x08840884
    120c:	008408c5 	.word	0x008408c5
    1210:	218810e6 	.word	0x218810e6
    1214:	00a500a5 	.word	0x00a500a5
    1218:	108400a5 	.word	0x108400a5
    121c:	08a408a4 	.word	0x08a408a4
    1220:	10a50884 	.word	0x10a50884
    1224:	088410a5 	.word	0x088410a5
    1228:	10a410a5 	.word	0x10a410a5
    122c:	08a410a4 	.word	0x08a410a4
    1230:	10c408c4 	.word	0x10c408c4
    1234:	10a510a5 	.word	0x10a510a5
    1238:	108510a5 	.word	0x108510a5
    123c:	10c410a4 	.word	0x10c410a4
    1240:	08c508c4 	.word	0x08c508c4
    1244:	18a410c5 	.word	0x18a410c5
    1248:	10c518a4 	.word	0x10c518a4
    124c:	19ab00a7 	.word	0x19ab00a7
    1250:	008521ec 	.word	0x008521ec
    1254:	18a418e5 	.word	0x18a418e5
    1258:	10c51884 	.word	0x10c51884
    125c:	10c510c5 	.word	0x10c510c5
    1260:	10e510c5 	.word	0x10e510c5
    1264:	208518c5 	.word	0x208518c5
    1268:	18e618a5 	.word	0x18e618a5
    126c:	18a410a5 	.word	0x18a410a5
    1270:	08c618c5 	.word	0x08c618c5
    1274:	08c63a6d 	.word	0x08c63a6d
    1278:	18c518c6 	.word	0x18c518c6
    127c:	186320a4 	.word	0x186320a4
    1280:	20e620c5 	.word	0x20e620c5
    1284:	18a418c5 	.word	0x18a418c5
    1288:	10a518c5 	.word	0x10a518c5
    128c:	18a531ca 	.word	0x18a531ca
    1290:	18c518c5 	.word	0x18c518c5
    1294:	18a518a5 	.word	0x18a518a5
    1298:	20a42084 	.word	0x20a42084
    129c:	296818c5 	.word	0x296818c5
    12a0:	18a510c6 	.word	0x18a510c6
    12a4:	20a420a5 	.word	0x20a420a5
    12a8:	20e51884 	.word	0x20e51884
    12ac:	208420e5 	.word	0x208420e5
    12b0:	20a42084 	.word	0x20a42084
    12b4:	20e520a4 	.word	0x20e520a4
    12b8:	20841884 	.word	0x20841884
    12bc:	20c520a4 	.word	0x20c520a4
    12c0:	20a41884 	.word	0x20a41884
    12c4:	208420c5 	.word	0x208420c5
    12c8:	20a42084 	.word	0x20a42084
    12cc:	20a41863 	.word	0x20a41863
    12d0:	20c51884 	.word	0x20c51884
    12d4:	28c520a4 	.word	0x28c520a4
    12d8:	210620c5 	.word	0x210620c5
    12dc:	29472126 	.word	0x29472126
    12e0:	29c82967 	.word	0x29c82967
    12e4:	3aab322a 	.word	0x3aab322a
    12e8:	3acc3aec 	.word	0x3acc3aec
    12ec:	29e9326b 	.word	0x29e9326b
    12f0:	29462987 	.word	0x29462987
    12f4:	20e52906 	.word	0x20e52906
    12f8:	20a420c4 	.word	0x20a420c4
    12fc:	20832083 	.word	0x20832083
    1300:	18631863 	.word	0x18631863
    1304:	18631863 	.word	0x18631863
    1308:	18631863 	.word	0x18631863
    130c:	18631863 	.word	0x18631863
    1310:	18421842 	.word	0x18421842
    1314:	18421842 	.word	0x18421842
    1318:	18421842 	.word	0x18421842
    131c:	18421842 	.word	0x18421842
    1320:	18421842 	.word	0x18421842
    1324:	18421842 	.word	0x18421842
    1328:	18421842 	.word	0x18421842
    132c:	18421842 	.word	0x18421842
    1330:	18421842 	.word	0x18421842
    1334:	18421842 	.word	0x18421842
    1338:	18421842 	.word	0x18421842
    133c:	18421842 	.word	0x18421842
    1340:	18421842 	.word	0x18421842
    1344:	18221822 	.word	0x18221822
    1348:	18421822 	.word	0x18421822
    134c:	18221842 	.word	0x18221842
    1350:	18221822 	.word	0x18221822
    1354:	18211822 	.word	0x18211822
    1358:	18211821 	.word	0x18211821
    135c:	18211821 	.word	0x18211821
    1360:	18211821 	.word	0x18211821
    1364:	18211821 	.word	0x18211821
    1368:	18211821 	.word	0x18211821
    136c:	10211821 	.word	0x10211821
    1370:	10211021 	.word	0x10211021
    1374:	10211021 	.word	0x10211021
    1378:	10211021 	.word	0x10211021
    137c:	10211021 	.word	0x10211021
    1380:	10211021 	.word	0x10211021
    1384:	10211021 	.word	0x10211021
    1388:	10211021 	.word	0x10211021
    138c:	10211021 	.word	0x10211021
    1390:	10211021 	.word	0x10211021
    1394:	10211021 	.word	0x10211021
    1398:	10211021 	.word	0x10211021
    139c:	10211021 	.word	0x10211021
    13a0:	10211021 	.word	0x10211021
    13a4:	10201021 	.word	0x10201021
    13a8:	10201020 	.word	0x10201020
    13ac:	10001020 	.word	0x10001020
    13b0:	10001000 	.word	0x10001000
    13b4:	08011001 	.word	0x08011001
    13b8:	10010801 	.word	0x10010801
    13bc:	08011001 	.word	0x08011001
    13c0:	08010801 	.word	0x08010801
    13c4:	08000800 	.word	0x08000800
    13c8:	08000800 	.word	0x08000800
    13cc:	08000800 	.word	0x08000800
    13d0:	08000800 	.word	0x08000800
    13d4:	08010800 	.word	0x08010800
    13d8:	08000801 	.word	0x08000801
    13dc:	08000800 	.word	0x08000800
    13e0:	08000800 	.word	0x08000800
    13e4:	08000800 	.word	0x08000800
    13e8:	08000800 	.word	0x08000800
    13ec:	08000800 	.word	0x08000800
    13f0:	08000800 	.word	0x08000800
    13f4:	08000800 	.word	0x08000800
    13f8:	08840800 	.word	0x08840800
    13fc:	08840884 	.word	0x08840884
    1400:	08840884 	.word	0x08840884
    1404:	08840884 	.word	0x08840884
    1408:	08840884 	.word	0x08840884
    140c:	08840884 	.word	0x08840884
    1410:	08840884 	.word	0x08840884
    1414:	08840884 	.word	0x08840884
    1418:	08840884 	.word	0x08840884
    141c:	08840884 	.word	0x08840884
    1420:	08840884 	.word	0x08840884
    1424:	08840884 	.word	0x08840884
    1428:	08840884 	.word	0x08840884
    142c:	08840884 	.word	0x08840884
    1430:	08840884 	.word	0x08840884
    1434:	08840884 	.word	0x08840884
    1438:	08840884 	.word	0x08840884
    143c:	08840884 	.word	0x08840884
    1440:	08840884 	.word	0x08840884
    1444:	08840884 	.word	0x08840884
    1448:	08840884 	.word	0x08840884
    144c:	08840884 	.word	0x08840884
    1450:	08840884 	.word	0x08840884
    1454:	08840884 	.word	0x08840884
    1458:	08830884 	.word	0x08830884
    145c:	08830884 	.word	0x08830884
    1460:	08840884 	.word	0x08840884
    1464:	08a40884 	.word	0x08a40884
    1468:	08840883 	.word	0x08840883
    146c:	08840884 	.word	0x08840884
    1470:	08840884 	.word	0x08840884
    1474:	08840884 	.word	0x08840884
    1478:	08840884 	.word	0x08840884
    147c:	08840884 	.word	0x08840884
    1480:	08840884 	.word	0x08840884
    1484:	08a40884 	.word	0x08a40884
    1488:	088408a4 	.word	0x088408a4
    148c:	08a508a4 	.word	0x08a508a4
    1490:	08c600a4 	.word	0x08c600a4
    1494:	08c62189 	.word	0x08c62189
    1498:	108500a5 	.word	0x108500a5
    149c:	00a40884 	.word	0x00a40884
    14a0:	10a508c5 	.word	0x10a508c5
    14a4:	10a410a4 	.word	0x10a410a4
    14a8:	10a410a5 	.word	0x10a410a5
    14ac:	08c410c4 	.word	0x08c410c4
    14b0:	10a508c4 	.word	0x10a508c4
    14b4:	10a51885 	.word	0x10a51885
    14b8:	10a508c5 	.word	0x10a508c5
    14bc:	10a510a5 	.word	0x10a510a5
    14c0:	10c410c4 	.word	0x10c410c4
    14c4:	10c510c4 	.word	0x10c510c4
    14c8:	108510a6 	.word	0x108510a6
    14cc:	088518c6 	.word	0x088518c6
    14d0:	198a2a2c 	.word	0x198a2a2c
    14d4:	10c600a7 	.word	0x10c600a7
    14d8:	18a518a4 	.word	0x18a518a4
    14dc:	10c418a5 	.word	0x10c418a5
    14e0:	10c510e5 	.word	0x10c510e5
    14e4:	18a618c5 	.word	0x18a618c5
    14e8:	10a518a6 	.word	0x10a518a6
    14ec:	10c510e5 	.word	0x10c510e5
    14f0:	18a518c5 	.word	0x18a518c5
    14f4:	31cb2127 	.word	0x31cb2127
    14f8:	18c500c8 	.word	0x18c500c8
    14fc:	20e618a5 	.word	0x20e618a5
    1500:	18a518a5 	.word	0x18a518a5
    1504:	18c518c5 	.word	0x18c518c5
    1508:	20e518c5 	.word	0x20e518c5
    150c:	39a918c4 	.word	0x39a918c4
    1510:	18a610a5 	.word	0x18a610a5
    1514:	18a520c6 	.word	0x18a520c6
    1518:	20a420a5 	.word	0x20a420a5
    151c:	210718a5 	.word	0x210718a5
    1520:	18a52127 	.word	0x18a52127
    1524:	20a420a4 	.word	0x20a420a4
    1528:	18a520a4 	.word	0x18a520a4
    152c:	18a42907 	.word	0x18a42907
    1530:	20a418a4 	.word	0x20a418a4
    1534:	290620a4 	.word	0x290620a4
    1538:	20a418a4 	.word	0x20a418a4
    153c:	28e52084 	.word	0x28e52084
    1540:	20a41884 	.word	0x20a41884
    1544:	20a420a4 	.word	0x20a420a4
    1548:	20a42084 	.word	0x20a42084
    154c:	20a41884 	.word	0x20a41884
    1550:	20a420a4 	.word	0x20a420a4
    1554:	20c520c5 	.word	0x20c520c5
    1558:	210620c5 	.word	0x210620c5
    155c:	29472926 	.word	0x29472926
    1560:	29c82967 	.word	0x29c82967
    1564:	3aab322a 	.word	0x3aab322a
    1568:	3aec3aec 	.word	0x3aec3aec
    156c:	29e9326b 	.word	0x29e9326b
    1570:	29462987 	.word	0x29462987
    1574:	28e52926 	.word	0x28e52926
    1578:	20a420c5 	.word	0x20a420c5
    157c:	208320a4 	.word	0x208320a4
    1580:	20631883 	.word	0x20631883
    1584:	20632063 	.word	0x20632063
    1588:	18632063 	.word	0x18632063
    158c:	20431863 	.word	0x20431863
    1590:	20422043 	.word	0x20422043
    1594:	20422042 	.word	0x20422042
    1598:	20422042 	.word	0x20422042
    159c:	18422042 	.word	0x18422042
    15a0:	18421842 	.word	0x18421842
    15a4:	18421842 	.word	0x18421842
    15a8:	18421842 	.word	0x18421842
    15ac:	18421842 	.word	0x18421842
    15b0:	18421842 	.word	0x18421842
    15b4:	18421842 	.word	0x18421842
    15b8:	18421842 	.word	0x18421842
    15bc:	18421842 	.word	0x18421842
    15c0:	18421842 	.word	0x18421842
    15c4:	18221842 	.word	0x18221842
    15c8:	18421822 	.word	0x18421822
    15cc:	18221822 	.word	0x18221822
    15d0:	18221822 	.word	0x18221822
    15d4:	18211822 	.word	0x18211822
    15d8:	18211821 	.word	0x18211821
    15dc:	18211821 	.word	0x18211821
    15e0:	18211821 	.word	0x18211821
    15e4:	18211821 	.word	0x18211821
    15e8:	18211821 	.word	0x18211821
    15ec:	18211821 	.word	0x18211821
    15f0:	18211821 	.word	0x18211821
    15f4:	10211021 	.word	0x10211021
    15f8:	10211021 	.word	0x10211021
    15fc:	10211021 	.word	0x10211021
    1600:	10211021 	.word	0x10211021
    1604:	10211021 	.word	0x10211021
    1608:	10211021 	.word	0x10211021
    160c:	10211021 	.word	0x10211021
    1610:	10211021 	.word	0x10211021
    1614:	10211021 	.word	0x10211021
    1618:	10211021 	.word	0x10211021
    161c:	10211021 	.word	0x10211021
    1620:	10201020 	.word	0x10201020
    1624:	10201020 	.word	0x10201020
    1628:	10001020 	.word	0x10001020
    162c:	10001000 	.word	0x10001000
    1630:	10011000 	.word	0x10011000
    1634:	10011001 	.word	0x10011001
    1638:	10010801 	.word	0x10010801
    163c:	08011001 	.word	0x08011001
    1640:	08010801 	.word	0x08010801
    1644:	08000801 	.word	0x08000801
    1648:	08010800 	.word	0x08010800
    164c:	08010801 	.word	0x08010801
    1650:	08000800 	.word	0x08000800
    1654:	08000800 	.word	0x08000800
    1658:	08000800 	.word	0x08000800
    165c:	08000800 	.word	0x08000800
    1660:	08000800 	.word	0x08000800
    1664:	08000800 	.word	0x08000800
    1668:	08000800 	.word	0x08000800
    166c:	08000800 	.word	0x08000800
    1670:	08000800 	.word	0x08000800
    1674:	08000800 	.word	0x08000800
    1678:	08840800 	.word	0x08840800
    167c:	08840884 	.word	0x08840884
    1680:	08840884 	.word	0x08840884
    1684:	08840884 	.word	0x08840884
    1688:	08840884 	.word	0x08840884
    168c:	08840884 	.word	0x08840884
    1690:	08840884 	.word	0x08840884
    1694:	08840884 	.word	0x08840884
    1698:	08840884 	.word	0x08840884
    169c:	08840884 	.word	0x08840884
    16a0:	08840884 	.word	0x08840884
    16a4:	08840884 	.word	0x08840884
    16a8:	08840884 	.word	0x08840884
    16ac:	08840884 	.word	0x08840884
    16b0:	08840884 	.word	0x08840884
    16b4:	08840884 	.word	0x08840884
    16b8:	08840884 	.word	0x08840884
    16bc:	08840884 	.word	0x08840884
    16c0:	08840884 	.word	0x08840884
    16c4:	08840884 	.word	0x08840884
    16c8:	08840884 	.word	0x08840884
    16cc:	08840884 	.word	0x08840884
    16d0:	08840884 	.word	0x08840884
    16d4:	08840884 	.word	0x08840884
    16d8:	08830884 	.word	0x08830884
    16dc:	08830884 	.word	0x08830884
    16e0:	08840884 	.word	0x08840884
    16e4:	08a40884 	.word	0x08a40884
    16e8:	08840883 	.word	0x08840883
    16ec:	08840884 	.word	0x08840884
    16f0:	08840884 	.word	0x08840884
    16f4:	08840884 	.word	0x08840884
    16f8:	08840884 	.word	0x08840884
    16fc:	08840884 	.word	0x08840884
    1700:	08840884 	.word	0x08840884
    1704:	08a408a4 	.word	0x08a408a4
    1708:	088408a4 	.word	0x088408a4
    170c:	088408a4 	.word	0x088408a4
    1710:	08a508a5 	.word	0x08a508a5
    1714:	218808e6 	.word	0x218808e6
    1718:	00841106 	.word	0x00841106
    171c:	10a508a5 	.word	0x10a508a5
    1720:	08a408a4 	.word	0x08a408a4
    1724:	108410c4 	.word	0x108410c4
    1728:	10a51084 	.word	0x10a51084
    172c:	08c508c5 	.word	0x08c508c5
    1730:	10a508c5 	.word	0x10a508c5
    1734:	10a418a5 	.word	0x10a418a5
    1738:	10a408c4 	.word	0x10a408c4
    173c:	10a510a5 	.word	0x10a510a5
    1740:	10e410c5 	.word	0x10e410c5
    1744:	08c610e4 	.word	0x08c610e4
    1748:	18a610c7 	.word	0x18a610c7
    174c:	18c418a4 	.word	0x18c418a4
    1750:	32af00a5 	.word	0x32af00a5
    1754:	08e7010a 	.word	0x08e7010a
    1758:	18c518c5 	.word	0x18c518c5
    175c:	18c518c5 	.word	0x18c518c5
    1760:	18c518a5 	.word	0x18c518a5
    1764:	10e610c6 	.word	0x10e610c6
    1768:	18e518e6 	.word	0x18e518e6
    176c:	18e610c5 	.word	0x18e610c5
    1770:	208318c5 	.word	0x208318c5
    1774:	3a4d1884 	.word	0x3a4d1884
    1778:	18c4010b 	.word	0x18c4010b
    177c:	18e610c5 	.word	0x18e610c5
    1780:	20a520a5 	.word	0x20a520a5
    1784:	10c618c6 	.word	0x10c618c6
    1788:	20c418c5 	.word	0x20c418c5
    178c:	318a18a4 	.word	0x318a18a4
    1790:	18c61908 	.word	0x18c61908
    1794:	18a420a4 	.word	0x18a420a4
    1798:	20a418e6 	.word	0x20a418e6
    179c:	188520c5 	.word	0x188520c5
    17a0:	18a53169 	.word	0x18a53169
    17a4:	20a418a4 	.word	0x20a418a4
    17a8:	208520a5 	.word	0x208520a5
    17ac:	20e52906 	.word	0x20e52906
    17b0:	20a518a4 	.word	0x20a518a4
    17b4:	28e52085 	.word	0x28e52085
    17b8:	20a420c5 	.word	0x20a420c5
    17bc:	20c520a4 	.word	0x20c520a4
    17c0:	208420a4 	.word	0x208420a4
    17c4:	20c52084 	.word	0x20c52084
    17c8:	20a42084 	.word	0x20a42084
    17cc:	208420a4 	.word	0x208420a4
    17d0:	20a420c5 	.word	0x20a420c5
    17d4:	20c520c5 	.word	0x20c520c5
    17d8:	212628e5 	.word	0x212628e5
    17dc:	29472926 	.word	0x29472926
    17e0:	29c82988 	.word	0x29c82988
    17e4:	3aac322a 	.word	0x3aac322a
    17e8:	3acc3aec 	.word	0x3acc3aec
    17ec:	29e9326b 	.word	0x29e9326b
    17f0:	29462987 	.word	0x29462987
    17f4:	28e52926 	.word	0x28e52926
    17f8:	20a420e5 	.word	0x20a420e5
    17fc:	208320a4 	.word	0x208320a4
    1800:	20632083 	.word	0x20632083
    1804:	20632063 	.word	0x20632063
    1808:	20632063 	.word	0x20632063
    180c:	20632063 	.word	0x20632063
    1810:	20622063 	.word	0x20622063
    1814:	20622062 	.word	0x20622062
    1818:	20422042 	.word	0x20422042
    181c:	20422042 	.word	0x20422042
    1820:	20422042 	.word	0x20422042
    1824:	18422042 	.word	0x18422042
    1828:	18421842 	.word	0x18421842
    182c:	18421842 	.word	0x18421842
    1830:	18421842 	.word	0x18421842
    1834:	18421842 	.word	0x18421842
    1838:	18421842 	.word	0x18421842
    183c:	18421842 	.word	0x18421842
    1840:	18421842 	.word	0x18421842
    1844:	18221822 	.word	0x18221822
    1848:	18221822 	.word	0x18221822
    184c:	18221822 	.word	0x18221822
    1850:	18221822 	.word	0x18221822
    1854:	18221822 	.word	0x18221822
    1858:	18221822 	.word	0x18221822
    185c:	18211822 	.word	0x18211822
    1860:	18211821 	.word	0x18211821
    1864:	18211821 	.word	0x18211821
    1868:	18211821 	.word	0x18211821
    186c:	18211821 	.word	0x18211821
    1870:	18211821 	.word	0x18211821
    1874:	10211821 	.word	0x10211821
    1878:	10211021 	.word	0x10211021
    187c:	10211021 	.word	0x10211021
    1880:	10211021 	.word	0x10211021
    1884:	10211021 	.word	0x10211021
    1888:	10211021 	.word	0x10211021
    188c:	10211021 	.word	0x10211021
    1890:	10211021 	.word	0x10211021
    1894:	10211021 	.word	0x10211021
    1898:	10211021 	.word	0x10211021
    189c:	10211021 	.word	0x10211021
    18a0:	10201020 	.word	0x10201020
    18a4:	10201020 	.word	0x10201020
    18a8:	10001020 	.word	0x10001020
    18ac:	10011001 	.word	0x10011001
    18b0:	10011001 	.word	0x10011001
    18b4:	10001000 	.word	0x10001000
    18b8:	08011020 	.word	0x08011020
    18bc:	08010801 	.word	0x08010801
    18c0:	08010801 	.word	0x08010801
    18c4:	08000800 	.word	0x08000800
    18c8:	08010800 	.word	0x08010800
    18cc:	08010801 	.word	0x08010801
    18d0:	08000800 	.word	0x08000800
    18d4:	08000800 	.word	0x08000800
    18d8:	08000800 	.word	0x08000800
    18dc:	08000800 	.word	0x08000800
    18e0:	08000800 	.word	0x08000800
    18e4:	08000800 	.word	0x08000800
    18e8:	08000800 	.word	0x08000800
    18ec:	08000800 	.word	0x08000800
    18f0:	08000800 	.word	0x08000800
    18f4:	08000800 	.word	0x08000800
    18f8:	08840800 	.word	0x08840800
    18fc:	08840884 	.word	0x08840884
    1900:	08840884 	.word	0x08840884
    1904:	08840884 	.word	0x08840884
    1908:	08840884 	.word	0x08840884
    190c:	08840884 	.word	0x08840884
    1910:	08840884 	.word	0x08840884
    1914:	08840884 	.word	0x08840884
    1918:	08840884 	.word	0x08840884
    191c:	08840884 	.word	0x08840884
    1920:	08840884 	.word	0x08840884
    1924:	08840884 	.word	0x08840884
    1928:	08840884 	.word	0x08840884
    192c:	08840884 	.word	0x08840884
    1930:	08840884 	.word	0x08840884
    1934:	08840884 	.word	0x08840884
    1938:	08840884 	.word	0x08840884
    193c:	08840884 	.word	0x08840884
    1940:	08840884 	.word	0x08840884
    1944:	08840884 	.word	0x08840884
    1948:	08840884 	.word	0x08840884
    194c:	08840884 	.word	0x08840884
    1950:	08840884 	.word	0x08840884
    1954:	08840884 	.word	0x08840884
    1958:	08830884 	.word	0x08830884
    195c:	08830884 	.word	0x08830884
    1960:	08840884 	.word	0x08840884
    1964:	08a40884 	.word	0x08a40884
    1968:	08840883 	.word	0x08840883
    196c:	08840884 	.word	0x08840884
    1970:	08840884 	.word	0x08840884
    1974:	08840884 	.word	0x08840884
    1978:	08840884 	.word	0x08840884
    197c:	08840884 	.word	0x08840884
    1980:	08840884 	.word	0x08840884
    1984:	08a408a4 	.word	0x08a408a4
    1988:	10a508a4 	.word	0x10a508a4
    198c:	08a50884 	.word	0x08a50884
    1990:	08a508a4 	.word	0x08a508a4
    1994:	10e608a5 	.word	0x10e608a5
    1998:	09472168 	.word	0x09472168
    199c:	10a50085 	.word	0x10a50085
    19a0:	08a410a5 	.word	0x08a410a5
    19a4:	10a408c4 	.word	0x10a408c4
    19a8:	08c510a4 	.word	0x08c510a4
    19ac:	10a508c5 	.word	0x10a508c5
    19b0:	10a510a5 	.word	0x10a510a5
    19b4:	10c408c5 	.word	0x10c408c5
    19b8:	10a510a4 	.word	0x10a510a4
    19bc:	10c610c5 	.word	0x10c610c5
    19c0:	10c410c5 	.word	0x10c410c5
    19c4:	10c610e4 	.word	0x10c610e4
    19c8:	18c610c6 	.word	0x18c610c6
    19cc:	20e41884 	.word	0x20e41884
    19d0:	00e810c5 	.word	0x00e810c5
    19d4:	00c73ad1 	.word	0x00c73ad1
    19d8:	18e508e6 	.word	0x18e508e6
    19dc:	20a518c5 	.word	0x20a518c5
    19e0:	18c620a5 	.word	0x18c620a5
    19e4:	090610e6 	.word	0x090610e6
    19e8:	21051106 	.word	0x21051106
    19ec:	10a518a4 	.word	0x10a518a4
    19f0:	28e518c5 	.word	0x28e518c5
    19f4:	10c720c5 	.word	0x10c720c5
    19f8:	10a42a70 	.word	0x10a42a70
    19fc:	10c618e6 	.word	0x10c618e6
    1a00:	20c520c5 	.word	0x20c520c5
    1a04:	18c620c5 	.word	0x18c620c5
    1a08:	208420a5 	.word	0x208420a5
    1a0c:	10c820e6 	.word	0x10c820e6
    1a10:	18a531ec 	.word	0x18a531ec
    1a14:	20a428a3 	.word	0x20a428a3
    1a18:	20a410e6 	.word	0x20a410e6
    1a1c:	20a620c5 	.word	0x20a620c5
    1a20:	20e72928 	.word	0x20e72928
    1a24:	208420e6 	.word	0x208420e6
    1a28:	20a528a5 	.word	0x20a528a5
    1a2c:	212720c6 	.word	0x212720c6
    1a30:	20a518a5 	.word	0x20a518a5
    1a34:	20a528a5 	.word	0x20a528a5
    1a38:	20842906 	.word	0x20842906
    1a3c:	208420a5 	.word	0x208420a5
    1a40:	208428c5 	.word	0x208428c5
    1a44:	28c52084 	.word	0x28c52084
    1a48:	20842084 	.word	0x20842084
    1a4c:	208420a5 	.word	0x208420a5
    1a50:	208428c5 	.word	0x208428c5
    1a54:	20c528c5 	.word	0x20c528c5
    1a58:	212628e5 	.word	0x212628e5
    1a5c:	29472926 	.word	0x29472926
    1a60:	31c92988 	.word	0x31c92988
    1a64:	3aac324a 	.word	0x3aac324a
    1a68:	3acc3aec 	.word	0x3acc3aec
    1a6c:	29e93a6b 	.word	0x29e93a6b
    1a70:	29462987 	.word	0x29462987
    1a74:	28e52926 	.word	0x28e52926
    1a78:	20a420e5 	.word	0x20a420e5
    1a7c:	208320a4 	.word	0x208320a4
    1a80:	20632083 	.word	0x20632083
    1a84:	20632063 	.word	0x20632063
    1a88:	20632063 	.word	0x20632063
    1a8c:	20632063 	.word	0x20632063
    1a90:	20632063 	.word	0x20632063
    1a94:	20622062 	.word	0x20622062
    1a98:	20422062 	.word	0x20422062
    1a9c:	20422042 	.word	0x20422042
    1aa0:	20422042 	.word	0x20422042
    1aa4:	20422042 	.word	0x20422042
    1aa8:	20422042 	.word	0x20422042
    1aac:	18421842 	.word	0x18421842
    1ab0:	18421842 	.word	0x18421842
    1ab4:	18421842 	.word	0x18421842
    1ab8:	18421842 	.word	0x18421842
    1abc:	18421842 	.word	0x18421842
    1ac0:	18421842 	.word	0x18421842
    1ac4:	18421842 	.word	0x18421842
    1ac8:	18421821 	.word	0x18421821
    1acc:	18221842 	.word	0x18221842
    1ad0:	18221822 	.word	0x18221822
    1ad4:	18221822 	.word	0x18221822
    1ad8:	18221822 	.word	0x18221822
    1adc:	18221822 	.word	0x18221822
    1ae0:	18211821 	.word	0x18211821
    1ae4:	18211821 	.word	0x18211821
    1ae8:	18211821 	.word	0x18211821
    1aec:	18211821 	.word	0x18211821
    1af0:	18211821 	.word	0x18211821
    1af4:	18211821 	.word	0x18211821
    1af8:	10211821 	.word	0x10211821
    1afc:	10211021 	.word	0x10211021
    1b00:	10211021 	.word	0x10211021
    1b04:	10211021 	.word	0x10211021
    1b08:	10211020 	.word	0x10211020
    1b0c:	10211021 	.word	0x10211021
    1b10:	10211021 	.word	0x10211021
    1b14:	10211021 	.word	0x10211021
    1b18:	10211021 	.word	0x10211021
    1b1c:	10211021 	.word	0x10211021
    1b20:	10201020 	.word	0x10201020
    1b24:	10201020 	.word	0x10201020
    1b28:	10011020 	.word	0x10011020
    1b2c:	10011001 	.word	0x10011001
    1b30:	10011001 	.word	0x10011001
    1b34:	10201000 	.word	0x10201000
    1b38:	10011020 	.word	0x10011020
    1b3c:	10011001 	.word	0x10011001
    1b40:	10011001 	.word	0x10011001
    1b44:	08001001 	.word	0x08001001
    1b48:	08010800 	.word	0x08010800
    1b4c:	08000801 	.word	0x08000801
    1b50:	08000800 	.word	0x08000800
    1b54:	08010801 	.word	0x08010801
    1b58:	08000801 	.word	0x08000801
    1b5c:	08000800 	.word	0x08000800
    1b60:	08000800 	.word	0x08000800
    1b64:	08000800 	.word	0x08000800
    1b68:	08000800 	.word	0x08000800
    1b6c:	08000800 	.word	0x08000800
    1b70:	08000800 	.word	0x08000800
    1b74:	08000800 	.word	0x08000800
    1b78:	08840800 	.word	0x08840800
    1b7c:	08840884 	.word	0x08840884
    1b80:	08840884 	.word	0x08840884
    1b84:	08840884 	.word	0x08840884
    1b88:	08840884 	.word	0x08840884
    1b8c:	08840884 	.word	0x08840884
    1b90:	08840884 	.word	0x08840884
    1b94:	08840884 	.word	0x08840884
    1b98:	08840884 	.word	0x08840884
    1b9c:	08840884 	.word	0x08840884
    1ba0:	08840884 	.word	0x08840884
    1ba4:	08840884 	.word	0x08840884
    1ba8:	08840884 	.word	0x08840884
    1bac:	08840884 	.word	0x08840884
    1bb0:	08840884 	.word	0x08840884
    1bb4:	08840884 	.word	0x08840884
    1bb8:	08840884 	.word	0x08840884
    1bbc:	08840884 	.word	0x08840884
    1bc0:	08840884 	.word	0x08840884
    1bc4:	08840884 	.word	0x08840884
    1bc8:	08840884 	.word	0x08840884
    1bcc:	08840884 	.word	0x08840884
    1bd0:	08840884 	.word	0x08840884
    1bd4:	08840884 	.word	0x08840884
    1bd8:	08830884 	.word	0x08830884
    1bdc:	08830884 	.word	0x08830884
    1be0:	08840884 	.word	0x08840884
    1be4:	08a40884 	.word	0x08a40884
    1be8:	08840883 	.word	0x08840883
    1bec:	08840884 	.word	0x08840884
    1bf0:	08840884 	.word	0x08840884
    1bf4:	08840884 	.word	0x08840884
    1bf8:	08840884 	.word	0x08840884
    1bfc:	08840884 	.word	0x08840884
    1c00:	08a40884 	.word	0x08a40884
    1c04:	08a408a4 	.word	0x08a408a4
    1c08:	088408a4 	.word	0x088408a4
    1c0c:	08a410c5 	.word	0x08a410c5
    1c10:	08a408a5 	.word	0x08a408a5
    1c14:	088408c5 	.word	0x088408c5
    1c18:	19c91106 	.word	0x19c91106
    1c1c:	00841127 	.word	0x00841127
    1c20:	10a510a5 	.word	0x10a510a5
    1c24:	08e50884 	.word	0x08e50884
    1c28:	08c500c5 	.word	0x08c500c5
    1c2c:	18a510a5 	.word	0x18a510a5
    1c30:	10c510a5 	.word	0x10c510a5
    1c34:	10c408c5 	.word	0x10c408c5
    1c38:	10a510a4 	.word	0x10a510a4
    1c3c:	10c610c5 	.word	0x10c610c5
    1c40:	10e510e6 	.word	0x10e510e6
    1c44:	10c510e5 	.word	0x10c510e5
    1c48:	18c510c6 	.word	0x18c510c6
    1c4c:	18a418e5 	.word	0x18a418e5
    1c50:	08c610c5 	.word	0x08c610c5
    1c54:	328f1969 	.word	0x328f1969
    1c58:	18a500e8 	.word	0x18a500e8
    1c5c:	10c618c5 	.word	0x10c618c5
    1c60:	18c618c6 	.word	0x18c618c6
    1c64:	10e618e6 	.word	0x10e618e6
    1c68:	18c410e5 	.word	0x18c410e5
    1c6c:	18e620e5 	.word	0x18e620e5
    1c70:	18a518c5 	.word	0x18a518c5
    1c74:	18c718c6 	.word	0x18c718c6
    1c78:	21ab21ac 	.word	0x21ab21ac
    1c7c:	190608c7 	.word	0x190608c7
    1c80:	20c518c4 	.word	0x20c518c4
    1c84:	20c520c5 	.word	0x20c520c5
    1c88:	20c520a5 	.word	0x20c520a5
    1c8c:	10e81086 	.word	0x10e81086
    1c90:	210629ca 	.word	0x210629ca
    1c94:	20c520a4 	.word	0x20c520a4
    1c98:	20c510c6 	.word	0x20c510c6
    1c9c:	20c520a5 	.word	0x20c520a5
    1ca0:	296918c6 	.word	0x296918c6
    1ca4:	20c518a5 	.word	0x20c518a5
    1ca8:	28a528a4 	.word	0x28a528a4
    1cac:	212818a5 	.word	0x212818a5
    1cb0:	20a518c6 	.word	0x20a518c6
    1cb4:	208428a5 	.word	0x208428a5
    1cb8:	20a42906 	.word	0x20a42906
    1cbc:	188420a5 	.word	0x188420a5
    1cc0:	20a528e6 	.word	0x20a528e6
    1cc4:	28c52084 	.word	0x28c52084
    1cc8:	208420a4 	.word	0x208420a4
    1ccc:	208428c5 	.word	0x208428c5
    1cd0:	20a428c5 	.word	0x20a428c5
    1cd4:	20c528c5 	.word	0x20c528c5
    1cd8:	21262906 	.word	0x21262906
    1cdc:	29472926 	.word	0x29472926
    1ce0:	31c92988 	.word	0x31c92988
    1ce4:	3aac324a 	.word	0x3aac324a
    1ce8:	42ec42ed 	.word	0x42ec42ed
    1cec:	29e93a6b 	.word	0x29e93a6b
    1cf0:	29462987 	.word	0x29462987
    1cf4:	28e52926 	.word	0x28e52926
    1cf8:	28a428e5 	.word	0x28a428e5
    1cfc:	208420a4 	.word	0x208420a4
    1d00:	20832083 	.word	0x20832083
    1d04:	20632063 	.word	0x20632063
    1d08:	20632063 	.word	0x20632063
    1d0c:	20632063 	.word	0x20632063
    1d10:	20632063 	.word	0x20632063
    1d14:	20622062 	.word	0x20622062
    1d18:	20622062 	.word	0x20622062
    1d1c:	20422042 	.word	0x20422042
    1d20:	20422042 	.word	0x20422042
    1d24:	20422042 	.word	0x20422042
    1d28:	20422042 	.word	0x20422042
    1d2c:	20422042 	.word	0x20422042
    1d30:	20422042 	.word	0x20422042
    1d34:	20422042 	.word	0x20422042
    1d38:	18422042 	.word	0x18422042
    1d3c:	18421842 	.word	0x18421842
    1d40:	18421842 	.word	0x18421842
    1d44:	18221842 	.word	0x18221842
    1d48:	18421822 	.word	0x18421822
    1d4c:	18421842 	.word	0x18421842
    1d50:	18221822 	.word	0x18221822
    1d54:	18221822 	.word	0x18221822
    1d58:	18221822 	.word	0x18221822
    1d5c:	18221822 	.word	0x18221822
    1d60:	18211822 	.word	0x18211822
    1d64:	18211821 	.word	0x18211821
    1d68:	18211821 	.word	0x18211821
    1d6c:	18211821 	.word	0x18211821
    1d70:	18211821 	.word	0x18211821
    1d74:	18211821 	.word	0x18211821
    1d78:	18211821 	.word	0x18211821
    1d7c:	18211821 	.word	0x18211821
    1d80:	18211821 	.word	0x18211821
    1d84:	10211021 	.word	0x10211021
    1d88:	10201021 	.word	0x10201021
    1d8c:	10211020 	.word	0x10211020
    1d90:	10211021 	.word	0x10211021
    1d94:	10211021 	.word	0x10211021
    1d98:	10011021 	.word	0x10011021
    1d9c:	10211001 	.word	0x10211001
    1da0:	10201020 	.word	0x10201020
    1da4:	10201020 	.word	0x10201020
    1da8:	10011021 	.word	0x10011021
    1dac:	10011001 	.word	0x10011001
    1db0:	10011001 	.word	0x10011001
    1db4:	10201000 	.word	0x10201000
    1db8:	10001020 	.word	0x10001020
    1dbc:	10011001 	.word	0x10011001
    1dc0:	10011001 	.word	0x10011001
    1dc4:	10011001 	.word	0x10011001
    1dc8:	10011001 	.word	0x10011001
    1dcc:	08011001 	.word	0x08011001
    1dd0:	08010801 	.word	0x08010801
    1dd4:	08010801 	.word	0x08010801
    1dd8:	08000801 	.word	0x08000801
    1ddc:	08000800 	.word	0x08000800
    1de0:	08000800 	.word	0x08000800
    1de4:	08000800 	.word	0x08000800
    1de8:	08000800 	.word	0x08000800
    1dec:	08000800 	.word	0x08000800
    1df0:	08000800 	.word	0x08000800
    1df4:	08000800 	.word	0x08000800
    1df8:	08840800 	.word	0x08840800
    1dfc:	08840884 	.word	0x08840884
    1e00:	08840884 	.word	0x08840884
    1e04:	08840884 	.word	0x08840884
    1e08:	08840884 	.word	0x08840884
    1e0c:	08840884 	.word	0x08840884
    1e10:	08840884 	.word	0x08840884
    1e14:	08840884 	.word	0x08840884
    1e18:	08840884 	.word	0x08840884
    1e1c:	08840884 	.word	0x08840884
    1e20:	08840884 	.word	0x08840884
    1e24:	08840884 	.word	0x08840884
    1e28:	08840884 	.word	0x08840884
    1e2c:	08840884 	.word	0x08840884
    1e30:	08840884 	.word	0x08840884
    1e34:	08840884 	.word	0x08840884
    1e38:	08840884 	.word	0x08840884
    1e3c:	08840884 	.word	0x08840884
    1e40:	08840884 	.word	0x08840884
    1e44:	08840884 	.word	0x08840884
    1e48:	08840884 	.word	0x08840884
    1e4c:	08840884 	.word	0x08840884
    1e50:	08840884 	.word	0x08840884
    1e54:	08840884 	.word	0x08840884
    1e58:	08830884 	.word	0x08830884
    1e5c:	08830884 	.word	0x08830884
    1e60:	08840884 	.word	0x08840884
    1e64:	08a40884 	.word	0x08a40884
    1e68:	08840883 	.word	0x08840883
    1e6c:	08840884 	.word	0x08840884
    1e70:	08840884 	.word	0x08840884
    1e74:	08840884 	.word	0x08840884
    1e78:	08840884 	.word	0x08840884
    1e7c:	08840884 	.word	0x08840884
    1e80:	08840884 	.word	0x08840884
    1e84:	08a408a4 	.word	0x08a408a4
    1e88:	08a408a4 	.word	0x08a408a4
    1e8c:	08a40884 	.word	0x08a40884
    1e90:	10c508a4 	.word	0x10c508a4
    1e94:	08a50084 	.word	0x08a50084
    1e98:	08e60884 	.word	0x08e60884
    1e9c:	092721ea 	.word	0x092721ea
    1ea0:	18c50084 	.word	0x18c50084
    1ea4:	08e510a5 	.word	0x08e510a5
    1ea8:	08c500c5 	.word	0x08c500c5
    1eac:	10a510a5 	.word	0x10a510a5
    1eb0:	10c510a5 	.word	0x10c510a5
    1eb4:	10c410c5 	.word	0x10c410c5
    1eb8:	18c510c4 	.word	0x18c510c4
    1ebc:	10c510c5 	.word	0x10c510c5
    1ec0:	10e608e6 	.word	0x10e608e6
    1ec4:	18c510c5 	.word	0x18c510c5
    1ec8:	18c618c5 	.word	0x18c618c5
    1ecc:	10a510e6 	.word	0x10a510e6
    1ed0:	18c418e5 	.word	0x18c418e5
    1ed4:	220d08c5 	.word	0x220d08c5
    1ed8:	18c71a0e 	.word	0x18c71a0e
    1edc:	10e610c6 	.word	0x10e610c6
    1ee0:	18e610e6 	.word	0x18e610e6
    1ee4:	18c518c5 	.word	0x18c518c5
    1ee8:	18e518c5 	.word	0x18e518c5
    1eec:	10e518e6 	.word	0x10e518e6
    1ef0:	18e710e5 	.word	0x18e710e5
    1ef4:	18a718c7 	.word	0x18a718c7
    1ef8:	329218a6 	.word	0x329218a6
    1efc:	18c510e8 	.word	0x18c510e8
    1f00:	210520c4 	.word	0x210520c4
    1f04:	20c420c4 	.word	0x20c420c4
    1f08:	18c528c4 	.word	0x18c528c4
    1f0c:	190718e7 	.word	0x190718e7
    1f10:	39eb10e6 	.word	0x39eb10e6
    1f14:	20c610c7 	.word	0x20c610c7
    1f18:	28c528a5 	.word	0x28c528a5
    1f1c:	20a420a4 	.word	0x20a420a4
    1f20:	296920c6 	.word	0x296920c6
    1f24:	20c618c6 	.word	0x20c618c6
    1f28:	28c428a4 	.word	0x28c428a4
    1f2c:	20e720a5 	.word	0x20e720a5
    1f30:	20a52107 	.word	0x20a52107
    1f34:	208420a4 	.word	0x208420a4
    1f38:	28e528e6 	.word	0x28e528e6
    1f3c:	20a520a5 	.word	0x20a520a5
    1f40:	20c528e6 	.word	0x20c528e6
    1f44:	20a52084 	.word	0x20a52084
    1f48:	20a428c5 	.word	0x20a428c5
    1f4c:	20a528c5 	.word	0x20a528c5
    1f50:	28c520a5 	.word	0x28c520a5
    1f54:	28e520c5 	.word	0x28e520c5
    1f58:	21062906 	.word	0x21062906
    1f5c:	29672926 	.word	0x29672926
    1f60:	31c93188 	.word	0x31c93188
    1f64:	3acc3a4a 	.word	0x3acc3a4a
    1f68:	42ec430d 	.word	0x42ec430d
    1f6c:	31e93a8b 	.word	0x31e93a8b
    1f70:	29473188 	.word	0x29473188
    1f74:	29052926 	.word	0x29052926
    1f78:	28a428e5 	.word	0x28a428e5
    1f7c:	20a428a4 	.word	0x20a428a4
    1f80:	20832083 	.word	0x20832083
    1f84:	20632063 	.word	0x20632063
    1f88:	20432063 	.word	0x20432063
    1f8c:	20432043 	.word	0x20432043
    1f90:	20622043 	.word	0x20622043
    1f94:	20622062 	.word	0x20622062
    1f98:	20622062 	.word	0x20622062
    1f9c:	20622062 	.word	0x20622062
    1fa0:	20622062 	.word	0x20622062
    1fa4:	20622062 	.word	0x20622062
    1fa8:	20422042 	.word	0x20422042
    1fac:	20422042 	.word	0x20422042
    1fb0:	20422042 	.word	0x20422042
    1fb4:	20422042 	.word	0x20422042
    1fb8:	20422042 	.word	0x20422042
    1fbc:	20422042 	.word	0x20422042
    1fc0:	20422042 	.word	0x20422042
    1fc4:	18421842 	.word	0x18421842
    1fc8:	18421842 	.word	0x18421842
    1fcc:	18421842 	.word	0x18421842
    1fd0:	18221842 	.word	0x18221842
    1fd4:	18221822 	.word	0x18221822
    1fd8:	18221822 	.word	0x18221822
    1fdc:	18221822 	.word	0x18221822
    1fe0:	18211822 	.word	0x18211822
    1fe4:	18211821 	.word	0x18211821
    1fe8:	18211821 	.word	0x18211821
    1fec:	18211821 	.word	0x18211821
    1ff0:	18211821 	.word	0x18211821
    1ff4:	18211821 	.word	0x18211821
    1ff8:	18211821 	.word	0x18211821
    1ffc:	18211821 	.word	0x18211821
    2000:	18211821 	.word	0x18211821
    2004:	10211821 	.word	0x10211821
    2008:	10211021 	.word	0x10211021
    200c:	10211021 	.word	0x10211021
    2010:	10211021 	.word	0x10211021
    2014:	10211021 	.word	0x10211021
    2018:	10211021 	.word	0x10211021
    201c:	10211021 	.word	0x10211021
    2020:	10211021 	.word	0x10211021
    2024:	10211021 	.word	0x10211021
    2028:	10011021 	.word	0x10011021
    202c:	10011001 	.word	0x10011001
    2030:	10011001 	.word	0x10011001
    2034:	10201000 	.word	0x10201000
    2038:	10001020 	.word	0x10001020
    203c:	10001000 	.word	0x10001000
    2040:	10001000 	.word	0x10001000
    2044:	10011001 	.word	0x10011001
    2048:	10011001 	.word	0x10011001
    204c:	10011001 	.word	0x10011001
    2050:	10011001 	.word	0x10011001
    2054:	10011001 	.word	0x10011001
    2058:	08001001 	.word	0x08001001
    205c:	08000800 	.word	0x08000800
    2060:	08000800 	.word	0x08000800
    2064:	08000800 	.word	0x08000800
    2068:	08000800 	.word	0x08000800
    206c:	08000800 	.word	0x08000800
    2070:	08000800 	.word	0x08000800
    2074:	08000800 	.word	0x08000800
    2078:	08840800 	.word	0x08840800
    207c:	08840884 	.word	0x08840884
    2080:	08840884 	.word	0x08840884
    2084:	08840884 	.word	0x08840884
    2088:	08840884 	.word	0x08840884
    208c:	08840884 	.word	0x08840884
    2090:	08840884 	.word	0x08840884
    2094:	08840884 	.word	0x08840884
    2098:	08840884 	.word	0x08840884
    209c:	08840884 	.word	0x08840884
    20a0:	08840884 	.word	0x08840884
    20a4:	08840884 	.word	0x08840884
    20a8:	08840884 	.word	0x08840884
    20ac:	08840884 	.word	0x08840884
    20b0:	08840884 	.word	0x08840884
    20b4:	08840884 	.word	0x08840884
    20b8:	08840884 	.word	0x08840884
    20bc:	08840884 	.word	0x08840884
    20c0:	08840884 	.word	0x08840884
    20c4:	08840884 	.word	0x08840884
    20c8:	08840884 	.word	0x08840884
    20cc:	08840884 	.word	0x08840884
    20d0:	08840884 	.word	0x08840884
    20d4:	08840884 	.word	0x08840884
    20d8:	08830884 	.word	0x08830884
    20dc:	08830884 	.word	0x08830884
    20e0:	08840884 	.word	0x08840884
    20e4:	08a40884 	.word	0x08a40884
    20e8:	08840883 	.word	0x08840883
    20ec:	08840884 	.word	0x08840884
    20f0:	08840884 	.word	0x08840884
    20f4:	08840884 	.word	0x08840884
    20f8:	08a40884 	.word	0x08a40884
    20fc:	088408a4 	.word	0x088408a4
    2100:	08840884 	.word	0x08840884
    2104:	08a408a4 	.word	0x08a408a4
    2108:	08a408a4 	.word	0x08a408a4
    210c:	08a408a4 	.word	0x08a408a4
    2110:	088408a4 	.word	0x088408a4
    2114:	08a508c5 	.word	0x08a508c5
    2118:	10a608a5 	.word	0x10a608a5
    211c:	220a08e6 	.word	0x220a08e6
    2120:	00841188 	.word	0x00841188
    2124:	08c508c5 	.word	0x08c508c5
    2128:	10a510c5 	.word	0x10a510c5
    212c:	10a510a5 	.word	0x10a510a5
    2130:	10a510c5 	.word	0x10a510c5
    2134:	10c510c5 	.word	0x10c510c5
    2138:	10c510e5 	.word	0x10c510e5
    213c:	10c510c5 	.word	0x10c510c5
    2140:	10e610c5 	.word	0x10e610c5
    2144:	18c510c6 	.word	0x18c510c6
    2148:	10c518c5 	.word	0x10c518c5
    214c:	10e610e6 	.word	0x10e610e6
    2150:	18c420e5 	.word	0x18c420e5
    2154:	00c718e5 	.word	0x00c718e5
    2158:	112a32f1 	.word	0x112a32f1
    215c:	11051108 	.word	0x11051108
    2160:	18e518e5 	.word	0x18e518e5
    2164:	18e518c5 	.word	0x18e518c5
    2168:	18e618e5 	.word	0x18e618e5
    216c:	190618c6 	.word	0x190618c6
    2170:	18e71906 	.word	0x18e71906
    2174:	20e618c7 	.word	0x20e618c7
    2178:	094c20c5 	.word	0x094c20c5
    217c:	18c53a4e 	.word	0x18c53a4e
    2180:	18c520e5 	.word	0x18c520e5
    2184:	28e520c5 	.word	0x28e520c5
    2188:	18e620e5 	.word	0x18e620e5
    218c:	20c52107 	.word	0x20c52107
    2190:	29cc18a5 	.word	0x29cc18a5
    2194:	18c7114b 	.word	0x18c7114b
    2198:	28c530a3 	.word	0x28c530a3
    219c:	20e528c5 	.word	0x20e528c5
    21a0:	18c620e6 	.word	0x18c620e6
    21a4:	20a53169 	.word	0x20a53169
    21a8:	20c420c4 	.word	0x20c420c4
    21ac:	18a620c6 	.word	0x18a620c6
    21b0:	18c52928 	.word	0x18c52928
    21b4:	20a420c4 	.word	0x20a420c4
    21b8:	310628a5 	.word	0x310628a5
    21bc:	20c520a4 	.word	0x20c520a4
    21c0:	28c520c5 	.word	0x28c520c5
    21c4:	20a520a5 	.word	0x20a520a5
    21c8:	20a528e6 	.word	0x20a528e6
    21cc:	20a520c5 	.word	0x20a520c5
    21d0:	28e620a4 	.word	0x28e620a4
    21d4:	28e620a5 	.word	0x28e620a5
    21d8:	210628e6 	.word	0x210628e6
    21dc:	29672926 	.word	0x29672926
    21e0:	31c93188 	.word	0x31c93188
    21e4:	3acc3a4a 	.word	0x3acc3a4a
    21e8:	42ed430d 	.word	0x42ed430d
    21ec:	31e93a8b 	.word	0x31e93a8b
    21f0:	316731a8 	.word	0x316731a8
    21f4:	29052926 	.word	0x29052926
    21f8:	28c428e5 	.word	0x28c428e5
    21fc:	208428a4 	.word	0x208428a4
    2200:	20832083 	.word	0x20832083
    2204:	20632083 	.word	0x20632083
    2208:	20432063 	.word	0x20432063
    220c:	20432043 	.word	0x20432043
    2210:	20622043 	.word	0x20622043
    2214:	20622062 	.word	0x20622062
    2218:	20632062 	.word	0x20632062
    221c:	20622062 	.word	0x20622062
    2220:	20622062 	.word	0x20622062
    2224:	20622062 	.word	0x20622062
    2228:	20422042 	.word	0x20422042
    222c:	20422042 	.word	0x20422042
    2230:	20422042 	.word	0x20422042
    2234:	20422042 	.word	0x20422042
    2238:	20422042 	.word	0x20422042
    223c:	20422042 	.word	0x20422042
    2240:	20422042 	.word	0x20422042
    2244:	20422042 	.word	0x20422042
    2248:	18422042 	.word	0x18422042
    224c:	18421842 	.word	0x18421842
    2250:	18221822 	.word	0x18221822
    2254:	18221822 	.word	0x18221822
    2258:	18221822 	.word	0x18221822
    225c:	18221822 	.word	0x18221822
    2260:	18221822 	.word	0x18221822
    2264:	18211821 	.word	0x18211821
    2268:	18211821 	.word	0x18211821
    226c:	18211821 	.word	0x18211821
    2270:	18211821 	.word	0x18211821
    2274:	18211821 	.word	0x18211821
    2278:	18211821 	.word	0x18211821
    227c:	18211821 	.word	0x18211821
    2280:	18211821 	.word	0x18211821
    2284:	18211821 	.word	0x18211821
    2288:	10211821 	.word	0x10211821
    228c:	10211021 	.word	0x10211021
    2290:	10211021 	.word	0x10211021
    2294:	10211021 	.word	0x10211021
    2298:	10211021 	.word	0x10211021
    229c:	10211021 	.word	0x10211021
    22a0:	10211021 	.word	0x10211021
    22a4:	10221022 	.word	0x10221022
    22a8:	10021022 	.word	0x10021022
    22ac:	10011001 	.word	0x10011001
    22b0:	10011001 	.word	0x10011001
    22b4:	10001000 	.word	0x10001000
    22b8:	10001000 	.word	0x10001000
    22bc:	10001000 	.word	0x10001000
    22c0:	10001000 	.word	0x10001000
    22c4:	10001000 	.word	0x10001000
    22c8:	10011001 	.word	0x10011001
    22cc:	10011001 	.word	0x10011001
    22d0:	10011001 	.word	0x10011001
    22d4:	10011001 	.word	0x10011001
    22d8:	08001001 	.word	0x08001001
    22dc:	08000800 	.word	0x08000800
    22e0:	08000800 	.word	0x08000800
    22e4:	08000800 	.word	0x08000800
    22e8:	08000800 	.word	0x08000800
    22ec:	08000800 	.word	0x08000800
    22f0:	08000800 	.word	0x08000800
    22f4:	08000800 	.word	0x08000800
    22f8:	08840800 	.word	0x08840800
    22fc:	08840884 	.word	0x08840884
    2300:	08840884 	.word	0x08840884
    2304:	08840884 	.word	0x08840884
    2308:	08840884 	.word	0x08840884
    230c:	08840884 	.word	0x08840884
    2310:	08840884 	.word	0x08840884
    2314:	08840884 	.word	0x08840884
    2318:	08840884 	.word	0x08840884
    231c:	08840884 	.word	0x08840884
    2320:	08840884 	.word	0x08840884
    2324:	08840884 	.word	0x08840884
    2328:	08840884 	.word	0x08840884
    232c:	08840884 	.word	0x08840884
    2330:	08840884 	.word	0x08840884
    2334:	08840884 	.word	0x08840884
    2338:	08840884 	.word	0x08840884
    233c:	08840884 	.word	0x08840884
    2340:	08840884 	.word	0x08840884
    2344:	08840884 	.word	0x08840884
    2348:	08830884 	.word	0x08830884
    234c:	08840884 	.word	0x08840884
    2350:	08840884 	.word	0x08840884
    2354:	08840884 	.word	0x08840884
    2358:	08830884 	.word	0x08830884
    235c:	08830884 	.word	0x08830884
    2360:	088308a4 	.word	0x088308a4
    2364:	08840884 	.word	0x08840884
    2368:	08840884 	.word	0x08840884
    236c:	08840884 	.word	0x08840884
    2370:	08840884 	.word	0x08840884
    2374:	08840884 	.word	0x08840884
    2378:	08840884 	.word	0x08840884
    237c:	08a408a4 	.word	0x08a408a4
    2380:	08a408a4 	.word	0x08a408a4
    2384:	08a408a4 	.word	0x08a408a4
    2388:	08a408a4 	.word	0x08a408a4
    238c:	08a408a4 	.word	0x08a408a4
    2390:	08a408a4 	.word	0x08a408a4
    2394:	08a508a4 	.word	0x08a508a4
    2398:	10a508a5 	.word	0x10a508a5
    239c:	08e60885 	.word	0x08e60885
    23a0:	0988220a 	.word	0x0988220a
    23a4:	10c600c5 	.word	0x10c600c5
    23a8:	10a51085 	.word	0x10a51085
    23ac:	08a510c5 	.word	0x08a510c5
    23b0:	10c510c5 	.word	0x10c510c5
    23b4:	10e510c5 	.word	0x10e510c5
    23b8:	10e610e5 	.word	0x10e610e5
    23bc:	18c510c5 	.word	0x18c510c5
    23c0:	10c618c5 	.word	0x10c618c5
    23c4:	10e610e6 	.word	0x10e610e6
    23c8:	18e610e6 	.word	0x18e610e6
    23cc:	10e610e6 	.word	0x10e610e6
    23d0:	20c518c5 	.word	0x20c518c5
    23d4:	10e718e5 	.word	0x10e718e5
    23d8:	437300e8 	.word	0x437300e8
    23dc:	18e60108 	.word	0x18e60108
    23e0:	20c520a4 	.word	0x20c520a4
    23e4:	10e520e5 	.word	0x10e520e5
    23e8:	18e71926 	.word	0x18e71926
    23ec:	20e618e7 	.word	0x20e618e7
    23f0:	18e618e5 	.word	0x18e618e5
    23f4:	20e618e6 	.word	0x20e618e6
    23f8:	08e820e5 	.word	0x08e820e5
    23fc:	21693a4d 	.word	0x21693a4d
    2400:	20e618c7 	.word	0x20e618c7
    2404:	28c528a4 	.word	0x28c528a4
    2408:	18e718e7 	.word	0x18e718e7
    240c:	28c520c6 	.word	0x28c520c6
    2410:	08e820c6 	.word	0x08e820c6
    2414:	10c6326f 	.word	0x10c6326f
    2418:	28a530c2 	.word	0x28a530c2
    241c:	20e528e5 	.word	0x20e528e5
    2420:	20e620e5 	.word	0x20e620e5
    2424:	20c53969 	.word	0x20c53969
    2428:	20e520c5 	.word	0x20e520c5
    242c:	20c620c5 	.word	0x20c620c5
    2430:	21062927 	.word	0x21062927
    2434:	20a420c5 	.word	0x20a420c5
    2438:	310628a4 	.word	0x310628a4
    243c:	28c520a5 	.word	0x28c520a5
    2440:	310620a5 	.word	0x310620a5
    2444:	208520a5 	.word	0x208520a5
    2448:	20a528e6 	.word	0x20a528e6
    244c:	28e520a5 	.word	0x28e520a5
    2450:	28e620a5 	.word	0x28e620a5
    2454:	28e620c5 	.word	0x28e620c5
    2458:	292628e5 	.word	0x292628e5
    245c:	31672947 	.word	0x31672947
    2460:	31c93188 	.word	0x31c93188
    2464:	42ac3a4a 	.word	0x42ac3a4a
    2468:	42ed430d 	.word	0x42ed430d
    246c:	32093a8b 	.word	0x32093a8b
    2470:	316731a8 	.word	0x316731a8
    2474:	29052926 	.word	0x29052926
    2478:	28a428e5 	.word	0x28a428e5
    247c:	208428a4 	.word	0x208428a4
    2480:	20832083 	.word	0x20832083
    2484:	20632063 	.word	0x20632063
    2488:	20632063 	.word	0x20632063
    248c:	20432043 	.word	0x20432043
    2490:	20632043 	.word	0x20632043
    2494:	20632063 	.word	0x20632063
    2498:	20422042 	.word	0x20422042
    249c:	20422042 	.word	0x20422042
    24a0:	20422042 	.word	0x20422042
    24a4:	20422042 	.word	0x20422042
    24a8:	20422042 	.word	0x20422042
    24ac:	20422042 	.word	0x20422042
    24b0:	20422042 	.word	0x20422042
    24b4:	20422042 	.word	0x20422042
    24b8:	20422042 	.word	0x20422042
    24bc:	20422042 	.word	0x20422042
    24c0:	20212042 	.word	0x20212042
    24c4:	20212021 	.word	0x20212021
    24c8:	20422022 	.word	0x20422022
    24cc:	18221842 	.word	0x18221842
    24d0:	18422042 	.word	0x18422042
    24d4:	18231823 	.word	0x18231823
    24d8:	20421823 	.word	0x20421823
    24dc:	18221822 	.word	0x18221822
    24e0:	18221822 	.word	0x18221822
    24e4:	18221822 	.word	0x18221822
    24e8:	18211821 	.word	0x18211821
    24ec:	18211821 	.word	0x18211821
    24f0:	18211821 	.word	0x18211821
    24f4:	18211821 	.word	0x18211821
    24f8:	18211821 	.word	0x18211821
    24fc:	18211821 	.word	0x18211821
    2500:	18211821 	.word	0x18211821
    2504:	18211821 	.word	0x18211821
    2508:	18211821 	.word	0x18211821
    250c:	18211821 	.word	0x18211821
    2510:	10211821 	.word	0x10211821
    2514:	10211021 	.word	0x10211021
    2518:	10201021 	.word	0x10201021
    251c:	10421021 	.word	0x10421021
    2520:	10221022 	.word	0x10221022
    2524:	10021023 	.word	0x10021023
    2528:	10221843 	.word	0x10221843
    252c:	10011022 	.word	0x10011022
    2530:	10011001 	.word	0x10011001
    2534:	10011001 	.word	0x10011001
    2538:	10001001 	.word	0x10001001
    253c:	10001000 	.word	0x10001000
    2540:	10001000 	.word	0x10001000
    2544:	10001000 	.word	0x10001000
    2548:	10001000 	.word	0x10001000
    254c:	10011001 	.word	0x10011001
    2550:	10011001 	.word	0x10011001
    2554:	10011001 	.word	0x10011001
    2558:	08001001 	.word	0x08001001
    255c:	08000800 	.word	0x08000800
    2560:	08000800 	.word	0x08000800
    2564:	08000800 	.word	0x08000800
    2568:	08000800 	.word	0x08000800
    256c:	08000800 	.word	0x08000800
    2570:	08000800 	.word	0x08000800
    2574:	08000800 	.word	0x08000800
    2578:	08840800 	.word	0x08840800
    257c:	08840884 	.word	0x08840884
    2580:	08840884 	.word	0x08840884
    2584:	08840884 	.word	0x08840884
    2588:	08840884 	.word	0x08840884
    258c:	08840884 	.word	0x08840884
    2590:	08840884 	.word	0x08840884
    2594:	08840884 	.word	0x08840884
    2598:	08840884 	.word	0x08840884
    259c:	08840884 	.word	0x08840884
    25a0:	08840884 	.word	0x08840884
    25a4:	08840884 	.word	0x08840884
    25a8:	08840884 	.word	0x08840884
    25ac:	08840884 	.word	0x08840884
    25b0:	08840884 	.word	0x08840884
    25b4:	08840884 	.word	0x08840884
    25b8:	08840884 	.word	0x08840884
    25bc:	08840884 	.word	0x08840884
    25c0:	08840884 	.word	0x08840884
    25c4:	08840884 	.word	0x08840884
    25c8:	08830884 	.word	0x08830884
    25cc:	08840884 	.word	0x08840884
    25d0:	08840884 	.word	0x08840884
    25d4:	08840884 	.word	0x08840884
    25d8:	08830884 	.word	0x08830884
    25dc:	08830884 	.word	0x08830884
    25e0:	088408a4 	.word	0x088408a4
    25e4:	08840884 	.word	0x08840884
    25e8:	08840884 	.word	0x08840884
    25ec:	08840884 	.word	0x08840884
    25f0:	08840884 	.word	0x08840884
    25f4:	08840884 	.word	0x08840884
    25f8:	08840884 	.word	0x08840884
    25fc:	08a408a4 	.word	0x08a408a4
    2600:	08a408a4 	.word	0x08a408a4
    2604:	08a408a4 	.word	0x08a408a4
    2608:	08a408a4 	.word	0x08a408a4
    260c:	08a408a4 	.word	0x08a408a4
    2610:	08a408a4 	.word	0x08a408a4
    2614:	10a510a5 	.word	0x10a510a5
    2618:	088408c5 	.word	0x088408c5
    261c:	10c610a5 	.word	0x10c610a5
    2620:	224b00e6 	.word	0x224b00e6
    2624:	00a511a9 	.word	0x00a511a9
    2628:	10a518c6 	.word	0x10a518c6
    262c:	18e610c5 	.word	0x18e610c5
    2630:	10e510c5 	.word	0x10e510c5
    2634:	08c510e5 	.word	0x08c510e5
    2638:	08e610c5 	.word	0x08e610c5
    263c:	18c510c6 	.word	0x18c510c6
    2640:	18c518c5 	.word	0x18c518c5
    2644:	10e610e6 	.word	0x10e610e6
    2648:	18e610e6 	.word	0x18e610e6
    264c:	18e518e5 	.word	0x18e518e5
    2650:	18e518e5 	.word	0x18e518e5
    2654:	18e618e6 	.word	0x18e618e6
    2658:	018b10e6 	.word	0x018b10e6
    265c:	08c64331 	.word	0x08c64331
    2660:	28c528e6 	.word	0x28c528e6
    2664:	192618c5 	.word	0x192618c5
    2668:	18e71906 	.word	0x18e71906
    266c:	20e620c7 	.word	0x20e620c7
    2670:	20e520e6 	.word	0x20e520e6
    2674:	20e620e6 	.word	0x20e620e6
    2678:	20e41906 	.word	0x20e41906
    267c:	43120907 	.word	0x43120907
    2680:	20a508e8 	.word	0x20a508e8
    2684:	20e630c5 	.word	0x20e630c5
    2688:	19071907 	.word	0x19071907
    268c:	30e528c5 	.word	0x30e528c5
    2690:	18e720c6 	.word	0x18e720c6
    2694:	296829aa 	.word	0x296829aa
    2698:	20a420e5 	.word	0x20a420e5
    269c:	20e628e5 	.word	0x20e628e5
    26a0:	20e618a5 	.word	0x20e618a5
    26a4:	31472907 	.word	0x31472907
    26a8:	20c520e6 	.word	0x20c520e6
    26ac:	28c520a5 	.word	0x28c520a5
    26b0:	294720e6 	.word	0x294720e6
    26b4:	28c518a5 	.word	0x28c518a5
    26b8:	28e628a4 	.word	0x28e628a4
    26bc:	20a528e6 	.word	0x20a528e6
    26c0:	28e620a5 	.word	0x28e620a5
    26c4:	20a528c5 	.word	0x20a528c5
    26c8:	28c528c5 	.word	0x28c528c5
    26cc:	28e52085 	.word	0x28e52085
    26d0:	28e620a5 	.word	0x28e620a5
    26d4:	28e628c5 	.word	0x28e628c5
    26d8:	292628e6 	.word	0x292628e6
    26dc:	31672947 	.word	0x31672947
    26e0:	31e93188 	.word	0x31e93188
    26e4:	42cc3a4b 	.word	0x42cc3a4b
    26e8:	42ed4b0d 	.word	0x42ed4b0d
    26ec:	31e93a8b 	.word	0x31e93a8b
    26f0:	31673188 	.word	0x31673188
    26f4:	29053126 	.word	0x29053126
    26f8:	28a428e5 	.word	0x28a428e5
    26fc:	288428a4 	.word	0x288428a4
    2700:	20832083 	.word	0x20832083
    2704:	20632063 	.word	0x20632063
    2708:	20632063 	.word	0x20632063
    270c:	20632063 	.word	0x20632063
    2710:	20632063 	.word	0x20632063
    2714:	20632063 	.word	0x20632063
    2718:	20632063 	.word	0x20632063
    271c:	20632063 	.word	0x20632063
    2720:	20422042 	.word	0x20422042
    2724:	20422042 	.word	0x20422042
    2728:	20422042 	.word	0x20422042
    272c:	20422042 	.word	0x20422042
    2730:	20422042 	.word	0x20422042
    2734:	20422042 	.word	0x20422042
    2738:	20422042 	.word	0x20422042
    273c:	20422042 	.word	0x20422042
    2740:	20422042 	.word	0x20422042
    2744:	20422042 	.word	0x20422042
    2748:	20422042 	.word	0x20422042
    274c:	18221842 	.word	0x18221842
    2750:	18431843 	.word	0x18431843
    2754:	20642063 	.word	0x20642063
    2758:	20432064 	.word	0x20432064
    275c:	18222042 	.word	0x18222042
    2760:	18221822 	.word	0x18221822
    2764:	18211822 	.word	0x18211822
    2768:	18211821 	.word	0x18211821
    276c:	18211821 	.word	0x18211821
    2770:	18211821 	.word	0x18211821
    2774:	18211821 	.word	0x18211821
    2778:	18211821 	.word	0x18211821
    277c:	18211821 	.word	0x18211821
    2780:	18211821 	.word	0x18211821
    2784:	18211821 	.word	0x18211821
    2788:	18211821 	.word	0x18211821
    278c:	18211821 	.word	0x18211821
    2790:	18211821 	.word	0x18211821
    2794:	18211821 	.word	0x18211821
    2798:	18411821 	.word	0x18411821
    279c:	10011021 	.word	0x10011021
    27a0:	08021043 	.word	0x08021043
    27a4:	20c51044 	.word	0x20c51044
    27a8:	102220a5 	.word	0x102220a5
    27ac:	10211022 	.word	0x10211022
    27b0:	10001000 	.word	0x10001000
    27b4:	10011001 	.word	0x10011001
    27b8:	10011001 	.word	0x10011001
    27bc:	10001000 	.word	0x10001000
    27c0:	10001000 	.word	0x10001000
    27c4:	10001000 	.word	0x10001000
    27c8:	10001000 	.word	0x10001000
    27cc:	10001000 	.word	0x10001000
    27d0:	10011001 	.word	0x10011001
    27d4:	10011001 	.word	0x10011001
    27d8:	10001001 	.word	0x10001001
    27dc:	10001000 	.word	0x10001000
    27e0:	10001000 	.word	0x10001000
    27e4:	08001000 	.word	0x08001000
    27e8:	08000800 	.word	0x08000800
    27ec:	08000800 	.word	0x08000800
    27f0:	08000800 	.word	0x08000800
    27f4:	08000800 	.word	0x08000800
    27f8:	08840800 	.word	0x08840800
    27fc:	08840884 	.word	0x08840884
    2800:	08840884 	.word	0x08840884
    2804:	08840884 	.word	0x08840884
    2808:	08840884 	.word	0x08840884
    280c:	08840884 	.word	0x08840884
    2810:	08840884 	.word	0x08840884
    2814:	08840884 	.word	0x08840884
    2818:	08840884 	.word	0x08840884
    281c:	08840884 	.word	0x08840884
    2820:	08840884 	.word	0x08840884
    2824:	08840884 	.word	0x08840884
    2828:	08840884 	.word	0x08840884
    282c:	08840884 	.word	0x08840884
    2830:	08840884 	.word	0x08840884
    2834:	08840884 	.word	0x08840884
    2838:	08840884 	.word	0x08840884
    283c:	08840884 	.word	0x08840884
    2840:	08840884 	.word	0x08840884
    2844:	08840884 	.word	0x08840884
    2848:	08830884 	.word	0x08830884
    284c:	08840884 	.word	0x08840884
    2850:	08840884 	.word	0x08840884
    2854:	08840884 	.word	0x08840884
    2858:	08830884 	.word	0x08830884
    285c:	08830884 	.word	0x08830884
    2860:	088408a4 	.word	0x088408a4
    2864:	08840884 	.word	0x08840884
    2868:	08840884 	.word	0x08840884
    286c:	08840884 	.word	0x08840884
    2870:	08840884 	.word	0x08840884
    2874:	08840884 	.word	0x08840884
    2878:	08a40884 	.word	0x08a40884
    287c:	08a408a4 	.word	0x08a408a4
    2880:	08a408a4 	.word	0x08a408a4
    2884:	08a408a4 	.word	0x08a408a4
    2888:	08a408a4 	.word	0x08a408a4
    288c:	08a408a4 	.word	0x08a408a4
    2890:	08a408a4 	.word	0x08a408a4
    2894:	08a408a4 	.word	0x08a408a4
    2898:	08c510a5 	.word	0x08c510a5
    289c:	088510c5 	.word	0x088510c5
    28a0:	00e600a5 	.word	0x00e600a5
    28a4:	11a9224b 	.word	0x11a9224b
    28a8:	10c600a5 	.word	0x10c600a5
    28ac:	10a518c6 	.word	0x10a518c6
    28b0:	10e510c5 	.word	0x10e510c5
    28b4:	10e610e5 	.word	0x10e610e5
    28b8:	08e608e6 	.word	0x08e608e6
    28bc:	18e510e6 	.word	0x18e510e6
    28c0:	18c518c5 	.word	0x18c518c5
    28c4:	10e718c6 	.word	0x10e718c6
    28c8:	10e608e6 	.word	0x10e608e6
    28cc:	18c518e5 	.word	0x18c518e5
    28d0:	18e618e6 	.word	0x18e618e6
    28d4:	18e518e6 	.word	0x18e518e6
    28d8:	08e820e5 	.word	0x08e820e5
    28dc:	3aae220c 	.word	0x3aae220c
    28e0:	210608e6 	.word	0x210608e6
    28e4:	210620c5 	.word	0x210620c5
    28e8:	20e718e7 	.word	0x20e718e7
    28ec:	20e620e6 	.word	0x20e620e6
    28f0:	20e520e6 	.word	0x20e520e6
    28f4:	210620e5 	.word	0x210620e5
    28f8:	30c31906 	.word	0x30c31906
    28fc:	118d1908 	.word	0x118d1908
    2900:	20e62a4f 	.word	0x20e62a4f
    2904:	210628e5 	.word	0x210628e5
    2908:	20e618e7 	.word	0x20e618e7
    290c:	20c52906 	.word	0x20c52906
    2910:	28c628e6 	.word	0x28c628e6
    2914:	422c28c6 	.word	0x422c28c6
    2918:	28e508e8 	.word	0x28e508e8
    291c:	20e620c5 	.word	0x20e620c5
    2920:	28e520e6 	.word	0x28e520e6
    2924:	398820c5 	.word	0x398820c5
    2928:	20e620e6 	.word	0x20e620e6
    292c:	28e520c5 	.word	0x28e520c5
    2930:	314820c5 	.word	0x314820c5
    2934:	28c518c6 	.word	0x28c518c6
    2938:	20c528c4 	.word	0x20c528c4
    293c:	20a53127 	.word	0x20a53127
    2940:	20c528c5 	.word	0x20c528c5
    2944:	28c528e6 	.word	0x28c528e6
    2948:	28e620a5 	.word	0x28e620a5
    294c:	28c52085 	.word	0x28c52085
    2950:	28c520a5 	.word	0x28c520a5
    2954:	28e628c5 	.word	0x28e628c5
    2958:	292628e6 	.word	0x292628e6
    295c:	31673147 	.word	0x31673147
    2960:	39e931a8 	.word	0x39e931a8
    2964:	42cc3a4b 	.word	0x42cc3a4b
    2968:	42ed4b0d 	.word	0x42ed4b0d
    296c:	32093a6b 	.word	0x32093a6b
    2970:	314731a8 	.word	0x314731a8
    2974:	29053126 	.word	0x29053126
    2978:	28c428e5 	.word	0x28c428e5
    297c:	288428a4 	.word	0x288428a4
    2980:	28832083 	.word	0x28832083
    2984:	28632883 	.word	0x28632883
    2988:	20632063 	.word	0x20632063
    298c:	28632863 	.word	0x28632863
    2990:	20632863 	.word	0x20632863
    2994:	20632063 	.word	0x20632063
    2998:	20432063 	.word	0x20432063
    299c:	20422042 	.word	0x20422042
    29a0:	20422042 	.word	0x20422042
    29a4:	20422042 	.word	0x20422042
    29a8:	20422042 	.word	0x20422042
    29ac:	20422042 	.word	0x20422042
    29b0:	20422042 	.word	0x20422042
    29b4:	20422042 	.word	0x20422042
    29b8:	20422042 	.word	0x20422042
    29bc:	20422042 	.word	0x20422042
    29c0:	20422022 	.word	0x20422022
    29c4:	20422042 	.word	0x20422042
    29c8:	20422042 	.word	0x20422042
    29cc:	20421822 	.word	0x20421822
    29d0:	18431843 	.word	0x18431843
    29d4:	28a52085 	.word	0x28a52085
    29d8:	204328a5 	.word	0x204328a5
    29dc:	18222042 	.word	0x18222042
    29e0:	18221822 	.word	0x18221822
    29e4:	18211822 	.word	0x18211822
    29e8:	20211821 	.word	0x20211821
    29ec:	18212021 	.word	0x18212021
    29f0:	18211821 	.word	0x18211821
    29f4:	18211821 	.word	0x18211821
    29f8:	18211821 	.word	0x18211821
    29fc:	18211821 	.word	0x18211821
    2a00:	18211821 	.word	0x18211821
    2a04:	18211821 	.word	0x18211821
    2a08:	18211821 	.word	0x18211821
    2a0c:	18211821 	.word	0x18211821
    2a10:	18211821 	.word	0x18211821
    2a14:	18211821 	.word	0x18211821
    2a18:	10201821 	.word	0x10201821
    2a1c:	10221021 	.word	0x10221021
    2a20:	10231023 	.word	0x10231023
    2a24:	290720a6 	.word	0x290720a6
    2a28:	10221043 	.word	0x10221043
    2a2c:	10011021 	.word	0x10011021
    2a30:	10001000 	.word	0x10001000
    2a34:	10011001 	.word	0x10011001
    2a38:	10011001 	.word	0x10011001
    2a3c:	10001001 	.word	0x10001001
    2a40:	10001000 	.word	0x10001000
    2a44:	10001000 	.word	0x10001000
    2a48:	10001000 	.word	0x10001000
    2a4c:	10001000 	.word	0x10001000
    2a50:	10001000 	.word	0x10001000
    2a54:	10001000 	.word	0x10001000
    2a58:	10001001 	.word	0x10001001
    2a5c:	10001000 	.word	0x10001000
    2a60:	10001000 	.word	0x10001000
    2a64:	08001000 	.word	0x08001000
    2a68:	08000800 	.word	0x08000800
    2a6c:	08000800 	.word	0x08000800
    2a70:	08000800 	.word	0x08000800
    2a74:	08000800 	.word	0x08000800
    2a78:	08840800 	.word	0x08840800
    2a7c:	08840884 	.word	0x08840884
    2a80:	08840884 	.word	0x08840884
    2a84:	08840884 	.word	0x08840884
    2a88:	08840884 	.word	0x08840884
    2a8c:	08840884 	.word	0x08840884
    2a90:	08840884 	.word	0x08840884
    2a94:	08840884 	.word	0x08840884
    2a98:	08840884 	.word	0x08840884
    2a9c:	08840884 	.word	0x08840884
    2aa0:	08840884 	.word	0x08840884
    2aa4:	08840884 	.word	0x08840884
    2aa8:	08840884 	.word	0x08840884
    2aac:	08840884 	.word	0x08840884
    2ab0:	08840884 	.word	0x08840884
    2ab4:	08840884 	.word	0x08840884
    2ab8:	08840884 	.word	0x08840884
    2abc:	08840884 	.word	0x08840884
    2ac0:	08840884 	.word	0x08840884
    2ac4:	08840884 	.word	0x08840884
    2ac8:	08830884 	.word	0x08830884
    2acc:	08840884 	.word	0x08840884
    2ad0:	08840884 	.word	0x08840884
    2ad4:	08840884 	.word	0x08840884
    2ad8:	08830884 	.word	0x08830884
    2adc:	08830884 	.word	0x08830884
    2ae0:	088408a4 	.word	0x088408a4
    2ae4:	08840884 	.word	0x08840884
    2ae8:	08840884 	.word	0x08840884
    2aec:	08840884 	.word	0x08840884
    2af0:	08840884 	.word	0x08840884
    2af4:	08840884 	.word	0x08840884
    2af8:	08a40884 	.word	0x08a40884
    2afc:	08a408a4 	.word	0x08a408a4
    2b00:	08a408a4 	.word	0x08a408a4
    2b04:	08a408a4 	.word	0x08a408a4
    2b08:	08a408a4 	.word	0x08a408a4
    2b0c:	08a408a4 	.word	0x08a408a4
    2b10:	08a508a4 	.word	0x08a508a4
    2b14:	08a508a5 	.word	0x08a508a5
    2b18:	08a408a5 	.word	0x08a408a5
    2b1c:	08a508e5 	.word	0x08a508e5
    2b20:	10a608a5 	.word	0x10a608a5
    2b24:	2a6c08e6 	.word	0x2a6c08e6
    2b28:	00c519e9 	.word	0x00c519e9
    2b2c:	10c510c6 	.word	0x10c510c6
    2b30:	10c518e6 	.word	0x10c518e6
    2b34:	10e610c6 	.word	0x10e610c6
    2b38:	10e608e6 	.word	0x10e608e6
    2b3c:	10e510e6 	.word	0x10e510e6
    2b40:	18c618e5 	.word	0x18c618e5
    2b44:	10e618c6 	.word	0x10e618c6
    2b48:	11061106 	.word	0x11061106
    2b4c:	18c618e6 	.word	0x18c618e6
    2b50:	18e618e6 	.word	0x18e618e6
    2b54:	20e518e5 	.word	0x20e518e5
    2b58:	20c520c5 	.word	0x20c520c5
    2b5c:	2ad008e7 	.word	0x2ad008e7
    2b60:	08e61a2c 	.word	0x08e61a2c
    2b64:	21072106 	.word	0x21072106
    2b68:	20e620e7 	.word	0x20e620e7
    2b6c:	210620e6 	.word	0x210620e6
    2b70:	21062106 	.word	0x21062106
    2b74:	210620e6 	.word	0x210620e6
    2b78:	28c51906 	.word	0x28c51906
    2b7c:	08e92108 	.word	0x08e92108
    2b80:	194942b0 	.word	0x194942b0
    2b84:	210718e6 	.word	0x210718e6
    2b88:	20e52106 	.word	0x20e52106
    2b8c:	20c52906 	.word	0x20c52906
    2b90:	30c42905 	.word	0x30c42905
    2b94:	39cc28a4 	.word	0x39cc28a4
    2b98:	20e5198d 	.word	0x20e5198d
    2b9c:	20e720e6 	.word	0x20e720e6
    2ba0:	28e528e6 	.word	0x28e528e6
    2ba4:	294720c4 	.word	0x294720c4
    2ba8:	20e62948 	.word	0x20e62948
    2bac:	28e428e5 	.word	0x28e428e5
    2bb0:	290728c4 	.word	0x290728c4
    2bb4:	20c52928 	.word	0x20c52928
    2bb8:	20c528c4 	.word	0x20c528c4
    2bbc:	20c53106 	.word	0x20c53106
    2bc0:	28a528c5 	.word	0x28a528c5
    2bc4:	28c528e6 	.word	0x28c528e6
    2bc8:	310620a5 	.word	0x310620a5
    2bcc:	28c520a5 	.word	0x28c520a5
    2bd0:	28c528c5 	.word	0x28c528c5
    2bd4:	28e628e6 	.word	0x28e628e6
    2bd8:	29262906 	.word	0x29262906
    2bdc:	31673147 	.word	0x31673147
    2be0:	39e93188 	.word	0x39e93188
    2be4:	42cc3a4b 	.word	0x42cc3a4b
    2be8:	42ed4b0d 	.word	0x42ed4b0d
    2bec:	32093a8b 	.word	0x32093a8b
    2bf0:	314731a8 	.word	0x314731a8
    2bf4:	29053126 	.word	0x29053126
    2bf8:	28c428e5 	.word	0x28c428e5
    2bfc:	28a428a4 	.word	0x28a428a4
    2c00:	28832884 	.word	0x28832884
    2c04:	28632883 	.word	0x28632883
    2c08:	28632863 	.word	0x28632863
    2c0c:	28632863 	.word	0x28632863
    2c10:	28632863 	.word	0x28632863
    2c14:	28632863 	.word	0x28632863
    2c18:	28622863 	.word	0x28622863
    2c1c:	28622862 	.word	0x28622862
    2c20:	20422042 	.word	0x20422042
    2c24:	20422042 	.word	0x20422042
    2c28:	20422042 	.word	0x20422042
    2c2c:	20422042 	.word	0x20422042
    2c30:	20422042 	.word	0x20422042
    2c34:	20422042 	.word	0x20422042
    2c38:	20422042 	.word	0x20422042
    2c3c:	20422042 	.word	0x20422042
    2c40:	20222042 	.word	0x20222042
    2c44:	20222022 	.word	0x20222022
    2c48:	20432022 	.word	0x20432022
    2c4c:	20432042 	.word	0x20432042
    2c50:	20642043 	.word	0x20642043
    2c54:	28c628a6 	.word	0x28c628a6
    2c58:	20432085 	.word	0x20432085
    2c5c:	20222042 	.word	0x20222042
    2c60:	18221822 	.word	0x18221822
    2c64:	20211822 	.word	0x20211822
    2c68:	20212021 	.word	0x20212021
    2c6c:	20212021 	.word	0x20212021
    2c70:	20212021 	.word	0x20212021
    2c74:	18211821 	.word	0x18211821
    2c78:	18211821 	.word	0x18211821
    2c7c:	18211821 	.word	0x18211821
    2c80:	18211821 	.word	0x18211821
    2c84:	18211821 	.word	0x18211821
    2c88:	18211821 	.word	0x18211821
    2c8c:	18211821 	.word	0x18211821
    2c90:	18211821 	.word	0x18211821
    2c94:	18011821 	.word	0x18011821
    2c98:	10201801 	.word	0x10201801
    2c9c:	18221841 	.word	0x18221841
    2ca0:	18841002 	.word	0x18841002
    2ca4:	186528e7 	.word	0x186528e7
    2ca8:	10221002 	.word	0x10221002
    2cac:	10201021 	.word	0x10201021
    2cb0:	10001000 	.word	0x10001000
    2cb4:	10011001 	.word	0x10011001
    2cb8:	10011001 	.word	0x10011001
    2cbc:	10001001 	.word	0x10001001
    2cc0:	10001000 	.word	0x10001000
    2cc4:	10001000 	.word	0x10001000
    2cc8:	10001001 	.word	0x10001001
    2ccc:	10001000 	.word	0x10001000
    2cd0:	10001000 	.word	0x10001000
    2cd4:	10001000 	.word	0x10001000
    2cd8:	10001000 	.word	0x10001000
    2cdc:	10001000 	.word	0x10001000
    2ce0:	10001000 	.word	0x10001000
    2ce4:	08001000 	.word	0x08001000
    2ce8:	10000800 	.word	0x10000800
    2cec:	10001000 	.word	0x10001000
    2cf0:	10001000 	.word	0x10001000
    2cf4:	10001000 	.word	0x10001000
    2cf8:	08841000 	.word	0x08841000
    2cfc:	08840884 	.word	0x08840884
    2d00:	08840884 	.word	0x08840884
    2d04:	08840884 	.word	0x08840884
    2d08:	08840884 	.word	0x08840884
    2d0c:	08840884 	.word	0x08840884
    2d10:	08840884 	.word	0x08840884
    2d14:	08840884 	.word	0x08840884
    2d18:	08840884 	.word	0x08840884
    2d1c:	08840884 	.word	0x08840884
    2d20:	08840884 	.word	0x08840884
    2d24:	08840884 	.word	0x08840884
    2d28:	08840884 	.word	0x08840884
    2d2c:	08840884 	.word	0x08840884
    2d30:	08840884 	.word	0x08840884
    2d34:	08840884 	.word	0x08840884
    2d38:	08840884 	.word	0x08840884
    2d3c:	08840884 	.word	0x08840884
    2d40:	08840884 	.word	0x08840884
    2d44:	08840884 	.word	0x08840884
    2d48:	08840884 	.word	0x08840884
    2d4c:	08840883 	.word	0x08840883
    2d50:	08840884 	.word	0x08840884
    2d54:	08840884 	.word	0x08840884
    2d58:	08830884 	.word	0x08830884
    2d5c:	08830884 	.word	0x08830884
    2d60:	08840884 	.word	0x08840884
    2d64:	08840884 	.word	0x08840884
    2d68:	08840884 	.word	0x08840884
    2d6c:	08840884 	.word	0x08840884
    2d70:	08840884 	.word	0x08840884
    2d74:	08840884 	.word	0x08840884
    2d78:	08a40884 	.word	0x08a40884
    2d7c:	08a408a4 	.word	0x08a408a4
    2d80:	08a408a4 	.word	0x08a408a4
    2d84:	08a408a4 	.word	0x08a408a4
    2d88:	08a408a4 	.word	0x08a408a4
    2d8c:	08a508a5 	.word	0x08a508a5
    2d90:	08c508a5 	.word	0x08c508a5
    2d94:	08c508c5 	.word	0x08c508c5
    2d98:	08a408c5 	.word	0x08a408c5
    2d9c:	08e508a4 	.word	0x08e508a4
    2da0:	10a610c6 	.word	0x10a610c6
    2da4:	08e608a6 	.word	0x08e608a6
    2da8:	1a2a226b 	.word	0x1a2a226b
    2dac:	10c500c5 	.word	0x10c500c5
    2db0:	18c618c6 	.word	0x18c618c6
    2db4:	110608a5 	.word	0x110608a5
    2db8:	10e608e6 	.word	0x10e608e6
    2dbc:	110510e6 	.word	0x110510e6
    2dc0:	18c618e6 	.word	0x18c618e6
    2dc4:	18e618c6 	.word	0x18e618c6
    2dc8:	11261106 	.word	0x11261106
    2dcc:	18e61906 	.word	0x18e61906
    2dd0:	190620e6 	.word	0x190620e6
    2dd4:	21051905 	.word	0x21051905
    2dd8:	28e420e6 	.word	0x28e420e6
    2ddc:	01091107 	.word	0x01091107
    2de0:	11494b93 	.word	0x11494b93
    2de4:	19271107 	.word	0x19271107
    2de8:	21061907 	.word	0x21061907
    2dec:	21062906 	.word	0x21062906
    2df0:	19072107 	.word	0x19072107
    2df4:	21061907 	.word	0x21061907
    2df8:	21082106 	.word	0x21082106
    2dfc:	20e62106 	.word	0x20e62106
    2e00:	42f01907 	.word	0x42f01907
    2e04:	19080909 	.word	0x19080909
    2e08:	28e628e6 	.word	0x28e628e6
    2e0c:	290620e6 	.word	0x290620e6
    2e10:	30e428e4 	.word	0x30e428e4
    2e14:	18e728e5 	.word	0x18e728e5
    2e18:	18c63a6f 	.word	0x18c63a6f
    2e1c:	28e720e7 	.word	0x28e720e7
    2e20:	28e528c5 	.word	0x28e528c5
    2e24:	20e62905 	.word	0x20e62905
    2e28:	20e739aa 	.word	0x20e739aa
    2e2c:	28e428c5 	.word	0x28e428c5
    2e30:	20c628c4 	.word	0x20c628c4
    2e34:	20c63169 	.word	0x20c63169
    2e38:	28c528e5 	.word	0x28c528e5
    2e3c:	310628e6 	.word	0x310628e6
    2e40:	28c520c5 	.word	0x28c520c5
    2e44:	28c528e6 	.word	0x28c528e6
    2e48:	28e620a5 	.word	0x28e620a5
    2e4c:	28c528c5 	.word	0x28c528c5
    2e50:	20c53106 	.word	0x20c53106
    2e54:	28e52906 	.word	0x28e52906
    2e58:	29263106 	.word	0x29263106
    2e5c:	31683147 	.word	0x31683147
    2e60:	39e931a8 	.word	0x39e931a8
    2e64:	42cc3a4b 	.word	0x42cc3a4b
    2e68:	42ed4b0d 	.word	0x42ed4b0d
    2e6c:	3a093a8b 	.word	0x3a093a8b
    2e70:	316731a8 	.word	0x316731a8
    2e74:	31063126 	.word	0x31063126
    2e78:	28c428e5 	.word	0x28c428e5
    2e7c:	28a428a4 	.word	0x28a428a4
    2e80:	28832884 	.word	0x28832884
    2e84:	28632863 	.word	0x28632863
    2e88:	28632863 	.word	0x28632863
    2e8c:	28632863 	.word	0x28632863
    2e90:	28632863 	.word	0x28632863
    2e94:	28632863 	.word	0x28632863
    2e98:	28622863 	.word	0x28622863
    2e9c:	28622862 	.word	0x28622862
    2ea0:	28622862 	.word	0x28622862
    2ea4:	20422042 	.word	0x20422042
    2ea8:	20422042 	.word	0x20422042
    2eac:	20422042 	.word	0x20422042
    2eb0:	20422042 	.word	0x20422042
    2eb4:	20422042 	.word	0x20422042
    2eb8:	20422042 	.word	0x20422042
    2ebc:	20422042 	.word	0x20422042
    2ec0:	20422042 	.word	0x20422042
    2ec4:	20422042 	.word	0x20422042
    2ec8:	20432042 	.word	0x20432042
    2ecc:	20432023 	.word	0x20432023
    2ed0:	20852064 	.word	0x20852064
    2ed4:	28c628c6 	.word	0x28c628c6
    2ed8:	20431865 	.word	0x20431865
    2edc:	20222043 	.word	0x20222043
    2ee0:	20222022 	.word	0x20222022
    2ee4:	20212022 	.word	0x20212022
    2ee8:	20212021 	.word	0x20212021
    2eec:	20212021 	.word	0x20212021
    2ef0:	18212021 	.word	0x18212021
    2ef4:	20211821 	.word	0x20211821
    2ef8:	18212021 	.word	0x18212021
    2efc:	18211821 	.word	0x18211821
    2f00:	18211821 	.word	0x18211821
    2f04:	18211821 	.word	0x18211821
    2f08:	18211821 	.word	0x18211821
    2f0c:	18211821 	.word	0x18211821
    2f10:	18211821 	.word	0x18211821
    2f14:	18211821 	.word	0x18211821
    2f18:	18211821 	.word	0x18211821
    2f1c:	10221821 	.word	0x10221821
    2f20:	28c61843 	.word	0x28c61843
    2f24:	100220a5 	.word	0x100220a5
    2f28:	10221843 	.word	0x10221843
    2f2c:	10201021 	.word	0x10201021
    2f30:	10001000 	.word	0x10001000
    2f34:	10011001 	.word	0x10011001
    2f38:	10011001 	.word	0x10011001
    2f3c:	10011001 	.word	0x10011001
    2f40:	10001000 	.word	0x10001000
    2f44:	10011000 	.word	0x10011000
    2f48:	10001001 	.word	0x10001001
    2f4c:	10001000 	.word	0x10001000
    2f50:	10001000 	.word	0x10001000
    2f54:	10001000 	.word	0x10001000
    2f58:	10001000 	.word	0x10001000
    2f5c:	10001000 	.word	0x10001000
    2f60:	10001000 	.word	0x10001000
    2f64:	10001000 	.word	0x10001000
    2f68:	10000800 	.word	0x10000800
    2f6c:	10001000 	.word	0x10001000
    2f70:	10001000 	.word	0x10001000
    2f74:	10001000 	.word	0x10001000
    2f78:	08841000 	.word	0x08841000
    2f7c:	08840884 	.word	0x08840884
    2f80:	08840884 	.word	0x08840884
    2f84:	08840884 	.word	0x08840884
    2f88:	08840884 	.word	0x08840884
    2f8c:	08840884 	.word	0x08840884
    2f90:	08840884 	.word	0x08840884
    2f94:	08840884 	.word	0x08840884
    2f98:	08840884 	.word	0x08840884
    2f9c:	08840884 	.word	0x08840884
    2fa0:	08840884 	.word	0x08840884
    2fa4:	08840884 	.word	0x08840884
    2fa8:	08840884 	.word	0x08840884
    2fac:	08840884 	.word	0x08840884
    2fb0:	08840884 	.word	0x08840884
    2fb4:	08840884 	.word	0x08840884
    2fb8:	08840884 	.word	0x08840884
    2fbc:	08840884 	.word	0x08840884
    2fc0:	08840884 	.word	0x08840884
    2fc4:	08840884 	.word	0x08840884
    2fc8:	08840884 	.word	0x08840884
    2fcc:	08840883 	.word	0x08840883
    2fd0:	08840884 	.word	0x08840884
    2fd4:	08840884 	.word	0x08840884
    2fd8:	08830884 	.word	0x08830884
    2fdc:	08640884 	.word	0x08640884
    2fe0:	08840884 	.word	0x08840884
    2fe4:	08840884 	.word	0x08840884
    2fe8:	08840884 	.word	0x08840884
    2fec:	08840884 	.word	0x08840884
    2ff0:	08840884 	.word	0x08840884
    2ff4:	08840884 	.word	0x08840884
    2ff8:	08a40884 	.word	0x08a40884
    2ffc:	08a408a4 	.word	0x08a408a4
    3000:	08a408a4 	.word	0x08a408a4
    3004:	08a408a4 	.word	0x08a408a4
    3008:	08a508a5 	.word	0x08a508a5
    300c:	08a508a5 	.word	0x08a508a5
    3010:	08c508a5 	.word	0x08c508a5
    3014:	08c508c5 	.word	0x08c508c5
    3018:	10c508c5 	.word	0x10c508c5
    301c:	10c508c5 	.word	0x10c508c5
    3020:	08c508c5 	.word	0x08c508c5
    3024:	08c610c6 	.word	0x08c610c6
    3028:	228b00e6 	.word	0x228b00e6
    302c:	00c51a2a 	.word	0x00c51a2a
    3030:	088510c6 	.word	0x088510c6
    3034:	10e61106 	.word	0x10e61106
    3038:	10e510e6 	.word	0x10e510e6
    303c:	10e610e5 	.word	0x10e610e5
    3040:	18e610e6 	.word	0x18e610e6
    3044:	190618e6 	.word	0x190618e6
    3048:	11061906 	.word	0x11061906
    304c:	19071906 	.word	0x19071906
    3050:	19061907 	.word	0x19061907
    3054:	19061906 	.word	0x19061906
    3058:	210418e6 	.word	0x210418e6
    305c:	10e81906 	.word	0x10e81906
    3060:	5bb3114a 	.word	0x5bb3114a
    3064:	11270907 	.word	0x11270907
    3068:	21061927 	.word	0x21061927
    306c:	28e628e6 	.word	0x28e628e6
    3070:	190820e7 	.word	0x190820e7
    3074:	21071927 	.word	0x21071927
    3078:	19082106 	.word	0x19082106
    307c:	31052906 	.word	0x31052906
    3080:	322e2106 	.word	0x322e2106
    3084:	18e821ee 	.word	0x18e821ee
    3088:	290728e7 	.word	0x290728e7
    308c:	290620e7 	.word	0x290620e7
    3090:	290528e5 	.word	0x290528e5
    3094:	18e72106 	.word	0x18e72106
    3098:	31cb31aa 	.word	0x31cb31aa
    309c:	28e618e7 	.word	0x28e618e7
    30a0:	28e528c5 	.word	0x28e528c5
    30a4:	18e720e6 	.word	0x18e720e6
    30a8:	2927318a 	.word	0x2927318a
    30ac:	28e528e5 	.word	0x28e528e5
    30b0:	28c528c5 	.word	0x28c528c5
    30b4:	29073148 	.word	0x29073148
    30b8:	28c520e6 	.word	0x28c520e6
    30bc:	312728e6 	.word	0x312728e6
    30c0:	28c520a5 	.word	0x28c520a5
    30c4:	310628e6 	.word	0x310628e6
    30c8:	28e520a5 	.word	0x28e520a5
    30cc:	28c528e6 	.word	0x28c528e6
    30d0:	28c53106 	.word	0x28c53106
    30d4:	28e63106 	.word	0x28e63106
    30d8:	29263126 	.word	0x29263126
    30dc:	31883147 	.word	0x31883147
    30e0:	39e939a8 	.word	0x39e939a8
    30e4:	42cc3a4b 	.word	0x42cc3a4b
    30e8:	430d4b0d 	.word	0x430d4b0d
    30ec:	3a0a428b 	.word	0x3a0a428b
    30f0:	316739a8 	.word	0x316739a8
    30f4:	31063126 	.word	0x31063126
    30f8:	28c428e5 	.word	0x28c428e5
    30fc:	28a428a4 	.word	0x28a428a4
    3100:	28832884 	.word	0x28832884
    3104:	28632863 	.word	0x28632863
    3108:	28832863 	.word	0x28832863
    310c:	28632863 	.word	0x28632863
    3110:	28632863 	.word	0x28632863
    3114:	28632863 	.word	0x28632863
    3118:	28632863 	.word	0x28632863
    311c:	28632863 	.word	0x28632863
    3120:	28622863 	.word	0x28622863
    3124:	28622862 	.word	0x28622862
    3128:	20422042 	.word	0x20422042
    312c:	20422042 	.word	0x20422042
    3130:	20422042 	.word	0x20422042
    3134:	20422042 	.word	0x20422042
    3138:	20422042 	.word	0x20422042
    313c:	20422042 	.word	0x20422042
    3140:	20422042 	.word	0x20422042
    3144:	20422042 	.word	0x20422042
    3148:	20432042 	.word	0x20432042
    314c:	20432043 	.word	0x20432043
    3150:	28c62085 	.word	0x28c62085
    3154:	20a628e7 	.word	0x20a628e7
    3158:	20431845 	.word	0x20431845
    315c:	20222043 	.word	0x20222043
    3160:	20222022 	.word	0x20222022
    3164:	20212022 	.word	0x20212022
    3168:	20211821 	.word	0x20211821
    316c:	20212021 	.word	0x20212021
    3170:	18212021 	.word	0x18212021
    3174:	20211821 	.word	0x20211821
    3178:	18212021 	.word	0x18212021
    317c:	18211821 	.word	0x18211821
    3180:	18211821 	.word	0x18211821
    3184:	18211821 	.word	0x18211821
    3188:	18211821 	.word	0x18211821
    318c:	18211821 	.word	0x18211821
    3190:	18211821 	.word	0x18211821
    3194:	18211821 	.word	0x18211821
    3198:	18211821 	.word	0x18211821
    319c:	18221821 	.word	0x18221821
    31a0:	28a42084 	.word	0x28a42084
    31a4:	10021023 	.word	0x10021023
    31a8:	10221022 	.word	0x10221022
    31ac:	18001021 	.word	0x18001021
    31b0:	10001000 	.word	0x10001000
    31b4:	10011001 	.word	0x10011001
    31b8:	10011001 	.word	0x10011001
    31bc:	10011001 	.word	0x10011001
    31c0:	10001000 	.word	0x10001000
    31c4:	10011001 	.word	0x10011001
    31c8:	10011001 	.word	0x10011001
    31cc:	10001000 	.word	0x10001000
    31d0:	10001000 	.word	0x10001000
    31d4:	10001000 	.word	0x10001000
    31d8:	10001000 	.word	0x10001000
    31dc:	10001000 	.word	0x10001000
    31e0:	10001000 	.word	0x10001000
    31e4:	10001000 	.word	0x10001000
    31e8:	10001000 	.word	0x10001000
    31ec:	10001000 	.word	0x10001000
    31f0:	10001000 	.word	0x10001000
    31f4:	10001000 	.word	0x10001000
    31f8:	08841000 	.word	0x08841000
    31fc:	08840884 	.word	0x08840884
    3200:	08840884 	.word	0x08840884
    3204:	08840884 	.word	0x08840884
    3208:	08840884 	.word	0x08840884
    320c:	08840884 	.word	0x08840884
    3210:	08840884 	.word	0x08840884
    3214:	08840884 	.word	0x08840884
    3218:	08840884 	.word	0x08840884
    321c:	08840884 	.word	0x08840884
    3220:	08840884 	.word	0x08840884
    3224:	08840884 	.word	0x08840884
    3228:	08840884 	.word	0x08840884
    322c:	08840884 	.word	0x08840884
    3230:	08840884 	.word	0x08840884
    3234:	08840884 	.word	0x08840884
    3238:	08840884 	.word	0x08840884
    323c:	08840884 	.word	0x08840884
    3240:	08840884 	.word	0x08840884
    3244:	08840884 	.word	0x08840884
    3248:	08840884 	.word	0x08840884
    324c:	08840883 	.word	0x08840883
    3250:	08840884 	.word	0x08840884
    3254:	08840884 	.word	0x08840884
    3258:	08830884 	.word	0x08830884
    325c:	08640884 	.word	0x08640884
    3260:	08840884 	.word	0x08840884
    3264:	08840884 	.word	0x08840884
    3268:	08840884 	.word	0x08840884
    326c:	08840884 	.word	0x08840884
    3270:	08840884 	.word	0x08840884
    3274:	08840884 	.word	0x08840884
    3278:	08a40884 	.word	0x08a40884
    327c:	08a408a4 	.word	0x08a408a4
    3280:	08a408a4 	.word	0x08a408a4
    3284:	08a408a4 	.word	0x08a408a4
    3288:	08a508a5 	.word	0x08a508a5
    328c:	08a508a5 	.word	0x08a508a5
    3290:	08a508a5 	.word	0x08a508a5
    3294:	08c508c5 	.word	0x08c508c5
    3298:	08c508c5 	.word	0x08c508c5
    329c:	10c508a5 	.word	0x10c508a5
    32a0:	08e508c5 	.word	0x08e508c5
    32a4:	10c510e5 	.word	0x10c510e5
    32a8:	010608c6 	.word	0x010608c6
    32ac:	2a4b328d 	.word	0x2a4b328d
    32b0:	112700e6 	.word	0x112700e6
    32b4:	18e608c5 	.word	0x18e608c5
    32b8:	110518c5 	.word	0x110518c5
    32bc:	18e61105 	.word	0x18e61105
    32c0:	18e718e7 	.word	0x18e718e7
    32c4:	19061906 	.word	0x19061906
    32c8:	18e61906 	.word	0x18e61906
    32cc:	19061906 	.word	0x19061906
    32d0:	18e71907 	.word	0x18e71907
    32d4:	190718e7 	.word	0x190718e7
    32d8:	18e61907 	.word	0x18e61907
    32dc:	20e72906 	.word	0x20e72906
    32e0:	11cc08e7 	.word	0x11cc08e7
    32e4:	08e74b72 	.word	0x08e74b72
    32e8:	21261926 	.word	0x21261926
    32ec:	21072106 	.word	0x21072106
    32f0:	21082107 	.word	0x21082107
    32f4:	21271927 	.word	0x21271927
    32f8:	19282907 	.word	0x19282907
    32fc:	29062906 	.word	0x29062906
    3300:	10c82107 	.word	0x10c82107
    3304:	19095332 	.word	0x19095332
    3308:	29072107 	.word	0x29072107
    330c:	20e62907 	.word	0x20e62907
    3310:	21072927 	.word	0x21072927
    3314:	294720e7 	.word	0x294720e7
    3318:	3a4e18a5 	.word	0x3a4e18a5
    331c:	28c52128 	.word	0x28c52128
    3320:	28e63905 	.word	0x28e63905
    3324:	210820e7 	.word	0x210820e7
    3328:	39882107 	.word	0x39882107
    332c:	28e628e6 	.word	0x28e628e6
    3330:	28e528e5 	.word	0x28e528e5
    3334:	31482906 	.word	0x31482906
    3338:	28c518e7 	.word	0x28c518e7
    333c:	312728e6 	.word	0x312728e6
    3340:	28c528e6 	.word	0x28c528e6
    3344:	310628e6 	.word	0x310628e6
    3348:	28c528c5 	.word	0x28c528c5
    334c:	28c53106 	.word	0x28c53106
    3350:	28e628e6 	.word	0x28e628e6
    3354:	29062906 	.word	0x29062906
    3358:	29263127 	.word	0x29263127
    335c:	31883147 	.word	0x31883147
    3360:	39e939a8 	.word	0x39e939a8
    3364:	42cd426b 	.word	0x42cd426b
    3368:	4b0d4b0d 	.word	0x4b0d4b0d
    336c:	3a0a428b 	.word	0x3a0a428b
    3370:	316739a8 	.word	0x316739a8
    3374:	31063147 	.word	0x31063147
    3378:	30c528e5 	.word	0x30c528e5
    337c:	28a430c4 	.word	0x28a430c4
    3380:	28842884 	.word	0x28842884
    3384:	28632883 	.word	0x28632883
    3388:	28832863 	.word	0x28832863
    338c:	28632883 	.word	0x28632883
    3390:	28632863 	.word	0x28632863
    3394:	28632863 	.word	0x28632863
    3398:	28632863 	.word	0x28632863
    339c:	28632863 	.word	0x28632863
    33a0:	28632863 	.word	0x28632863
    33a4:	28622862 	.word	0x28622862
    33a8:	28422862 	.word	0x28422862
    33ac:	28422842 	.word	0x28422842
    33b0:	28422842 	.word	0x28422842
    33b4:	20422842 	.word	0x20422842
    33b8:	20422042 	.word	0x20422042
    33bc:	20422042 	.word	0x20422042
    33c0:	20422042 	.word	0x20422042
    33c4:	20422042 	.word	0x20422042
    33c8:	20222043 	.word	0x20222043
    33cc:	20642043 	.word	0x20642043
    33d0:	28e72085 	.word	0x28e72085
    33d4:	186628c7 	.word	0x186628c7
    33d8:	20431845 	.word	0x20431845
    33dc:	20222043 	.word	0x20222043
    33e0:	20222022 	.word	0x20222022
    33e4:	20212022 	.word	0x20212022
    33e8:	20212021 	.word	0x20212021
    33ec:	20212021 	.word	0x20212021
    33f0:	20212021 	.word	0x20212021
    33f4:	20212021 	.word	0x20212021
    33f8:	18212021 	.word	0x18212021
    33fc:	18211821 	.word	0x18211821
    3400:	18211821 	.word	0x18211821
    3404:	18211821 	.word	0x18211821
    3408:	18211821 	.word	0x18211821
    340c:	18211821 	.word	0x18211821
    3410:	18211821 	.word	0x18211821
    3414:	18211821 	.word	0x18211821
    3418:	18211821 	.word	0x18211821
    341c:	18011822 	.word	0x18011822
    3420:	10021822 	.word	0x10021822
    3424:	18221001 	.word	0x18221001
    3428:	10211022 	.word	0x10211022
    342c:	18011821 	.word	0x18011821
    3430:	18001800 	.word	0x18001800
    3434:	18001800 	.word	0x18001800
    3438:	10001800 	.word	0x10001800
    343c:	10011000 	.word	0x10011000
    3440:	10011001 	.word	0x10011001
    3444:	10011001 	.word	0x10011001
    3448:	10011001 	.word	0x10011001
    344c:	10001001 	.word	0x10001001
    3450:	10001000 	.word	0x10001000
    3454:	10011000 	.word	0x10011000
    3458:	10001001 	.word	0x10001001
    345c:	10001000 	.word	0x10001000
    3460:	10001000 	.word	0x10001000
    3464:	10001000 	.word	0x10001000
    3468:	10001000 	.word	0x10001000
    346c:	10001000 	.word	0x10001000
    3470:	10001000 	.word	0x10001000
    3474:	10001000 	.word	0x10001000
    3478:	08841000 	.word	0x08841000
    347c:	08840884 	.word	0x08840884
    3480:	08840884 	.word	0x08840884
    3484:	08840884 	.word	0x08840884
    3488:	08840884 	.word	0x08840884
    348c:	08840884 	.word	0x08840884
    3490:	08840884 	.word	0x08840884
    3494:	08840884 	.word	0x08840884
    3498:	08840884 	.word	0x08840884
    349c:	08840884 	.word	0x08840884
    34a0:	08840884 	.word	0x08840884
    34a4:	08840884 	.word	0x08840884
    34a8:	08840884 	.word	0x08840884
    34ac:	08840884 	.word	0x08840884
    34b0:	08840884 	.word	0x08840884
    34b4:	08840884 	.word	0x08840884
    34b8:	08840884 	.word	0x08840884
    34bc:	08840884 	.word	0x08840884
    34c0:	08840884 	.word	0x08840884
    34c4:	08840884 	.word	0x08840884
    34c8:	08840884 	.word	0x08840884
    34cc:	08840883 	.word	0x08840883
    34d0:	08840884 	.word	0x08840884
    34d4:	08840884 	.word	0x08840884
    34d8:	08830884 	.word	0x08830884
    34dc:	08640884 	.word	0x08640884
    34e0:	08840884 	.word	0x08840884
    34e4:	08840884 	.word	0x08840884
    34e8:	08840884 	.word	0x08840884
    34ec:	08840884 	.word	0x08840884
    34f0:	08840884 	.word	0x08840884
    34f4:	08840884 	.word	0x08840884
    34f8:	08a40884 	.word	0x08a40884
    34fc:	08a408a4 	.word	0x08a408a4
    3500:	08a408a4 	.word	0x08a408a4
    3504:	08a508a4 	.word	0x08a508a4
    3508:	08a508a5 	.word	0x08a508a5
    350c:	08a508a5 	.word	0x08a508a5
    3510:	08c508c5 	.word	0x08c508c5
    3514:	08c508c5 	.word	0x08c508c5
    3518:	10a508c5 	.word	0x10a508c5
    351c:	10c510c5 	.word	0x10c510c5
    3520:	08c510c5 	.word	0x08c510c5
    3524:	08e50905 	.word	0x08e50905
    3528:	10c610e6 	.word	0x10c610e6
    352c:	2aad00a6 	.word	0x2aad00a6
    3530:	00e5228c 	.word	0x00e5228c
    3534:	18c610e6 	.word	0x18c610e6
    3538:	110520c5 	.word	0x110520c5
    353c:	18e71106 	.word	0x18e71106
    3540:	110718e7 	.word	0x110718e7
    3544:	19061106 	.word	0x19061106
    3548:	18e618e6 	.word	0x18e618e6
    354c:	19261905 	.word	0x19261905
    3550:	18e81906 	.word	0x18e81906
    3554:	190818e8 	.word	0x190818e8
    3558:	21081127 	.word	0x21081127
    355c:	20c528e6 	.word	0x20c528e6
    3560:	01291948 	.word	0x01291948
    3564:	426e2ad0 	.word	0x426e2ad0
    3568:	212620c5 	.word	0x212620c5
    356c:	19281947 	.word	0x19281947
    3570:	21072108 	.word	0x21072108
    3574:	21272127 	.word	0x21272127
    3578:	21072907 	.word	0x21072907
    357c:	21072108 	.word	0x21072108
    3580:	21072928 	.word	0x21072928
    3584:	4acf2149 	.word	0x4acf2149
    3588:	292618e6 	.word	0x292618e6
    358c:	20e62906 	.word	0x20e62906
    3590:	21082128 	.word	0x21082128
    3594:	28e62907 	.word	0x28e62907
    3598:	21ad2906 	.word	0x21ad2906
    359c:	30e531aa 	.word	0x30e531aa
    35a0:	28e630e5 	.word	0x28e630e5
    35a4:	21282108 	.word	0x21282108
    35a8:	41a920e6 	.word	0x41a920e6
    35ac:	28c62906 	.word	0x28c62906
    35b0:	310528e6 	.word	0x310528e6
    35b4:	398920c5 	.word	0x398920c5
    35b8:	28e618e8 	.word	0x28e618e8
    35bc:	28e628e6 	.word	0x28e628e6
    35c0:	28c53127 	.word	0x28c53127
    35c4:	310628c5 	.word	0x310628c5
    35c8:	28c528e6 	.word	0x28c528e6
    35cc:	28c53126 	.word	0x28c53126
    35d0:	310628e5 	.word	0x310628e5
    35d4:	310628e6 	.word	0x310628e6
    35d8:	31473127 	.word	0x31473127
    35dc:	31883167 	.word	0x31883167
    35e0:	39e939a9 	.word	0x39e939a9
    35e4:	4aed426b 	.word	0x4aed426b
    35e8:	4b0d4b2d 	.word	0x4b0d4b2d
    35ec:	3a0a428b 	.word	0x3a0a428b
    35f0:	316739a8 	.word	0x316739a8
    35f4:	31063147 	.word	0x31063147
    35f8:	30c528e5 	.word	0x30c528e5
    35fc:	28a430c4 	.word	0x28a430c4
    3600:	28842884 	.word	0x28842884
    3604:	28832884 	.word	0x28832884
    3608:	28842863 	.word	0x28842863
    360c:	28842884 	.word	0x28842884
    3610:	28632863 	.word	0x28632863
    3614:	28632863 	.word	0x28632863
    3618:	28632863 	.word	0x28632863
    361c:	28632863 	.word	0x28632863
    3620:	28632863 	.word	0x28632863
    3624:	28622863 	.word	0x28622863
    3628:	28422862 	.word	0x28422862
    362c:	28422842 	.word	0x28422842
    3630:	28422842 	.word	0x28422842
    3634:	28422842 	.word	0x28422842
    3638:	20422042 	.word	0x20422042
    363c:	20422042 	.word	0x20422042
    3640:	20422042 	.word	0x20422042
    3644:	20422042 	.word	0x20422042
    3648:	20432042 	.word	0x20432042
    364c:	20642064 	.word	0x20642064
    3650:	30e728a6 	.word	0x30e728a6
    3654:	184520a6 	.word	0x184520a6
    3658:	20431846 	.word	0x20431846
    365c:	20222022 	.word	0x20222022
    3660:	20222022 	.word	0x20222022
    3664:	20422042 	.word	0x20422042
    3668:	20212021 	.word	0x20212021
    366c:	20212021 	.word	0x20212021
    3670:	20212021 	.word	0x20212021
    3674:	20212021 	.word	0x20212021
    3678:	18212021 	.word	0x18212021
    367c:	18211821 	.word	0x18211821
    3680:	18211821 	.word	0x18211821
    3684:	18211821 	.word	0x18211821
    3688:	18211821 	.word	0x18211821
    368c:	18211821 	.word	0x18211821
    3690:	18211821 	.word	0x18211821
    3694:	18211821 	.word	0x18211821
    3698:	18011821 	.word	0x18011821
    369c:	18211801 	.word	0x18211801
    36a0:	10221801 	.word	0x10221801
    36a4:	10011822 	.word	0x10011822
    36a8:	18211821 	.word	0x18211821
    36ac:	18011821 	.word	0x18011821
    36b0:	18001800 	.word	0x18001800
    36b4:	18001800 	.word	0x18001800
    36b8:	18001800 	.word	0x18001800
    36bc:	10001000 	.word	0x10001000
    36c0:	10011001 	.word	0x10011001
    36c4:	10011001 	.word	0x10011001
    36c8:	10211001 	.word	0x10211001
    36cc:	10011001 	.word	0x10011001
    36d0:	10001000 	.word	0x10001000
    36d4:	10011000 	.word	0x10011000
    36d8:	10001001 	.word	0x10001001
    36dc:	10001000 	.word	0x10001000
    36e0:	10001000 	.word	0x10001000
    36e4:	10001000 	.word	0x10001000
    36e8:	10001000 	.word	0x10001000
    36ec:	10001000 	.word	0x10001000
    36f0:	10001000 	.word	0x10001000
    36f4:	10001000 	.word	0x10001000
    36f8:	08841000 	.word	0x08841000
    36fc:	08840884 	.word	0x08840884
    3700:	08840884 	.word	0x08840884
    3704:	08840884 	.word	0x08840884
    3708:	08840884 	.word	0x08840884
    370c:	08840884 	.word	0x08840884
    3710:	08840884 	.word	0x08840884
    3714:	08840884 	.word	0x08840884
    3718:	08840884 	.word	0x08840884
    371c:	08840884 	.word	0x08840884
    3720:	08840884 	.word	0x08840884
    3724:	08840884 	.word	0x08840884
    3728:	08840884 	.word	0x08840884
    372c:	08840884 	.word	0x08840884
    3730:	08840884 	.word	0x08840884
    3734:	08840884 	.word	0x08840884
    3738:	08830884 	.word	0x08830884
    373c:	08840883 	.word	0x08840883
    3740:	08840884 	.word	0x08840884
    3744:	08840884 	.word	0x08840884
    3748:	08840884 	.word	0x08840884
    374c:	08840884 	.word	0x08840884
    3750:	08840884 	.word	0x08840884
    3754:	08840884 	.word	0x08840884
    3758:	08840884 	.word	0x08840884
    375c:	08840884 	.word	0x08840884
    3760:	08840884 	.word	0x08840884
    3764:	08840884 	.word	0x08840884
    3768:	08840884 	.word	0x08840884
    376c:	08a408a4 	.word	0x08a408a4
    3770:	08a408a4 	.word	0x08a408a4
    3774:	08a40084 	.word	0x08a40084
    3778:	08a408a4 	.word	0x08a408a4
    377c:	08a408a4 	.word	0x08a408a4
    3780:	08a408a4 	.word	0x08a408a4
    3784:	08a508a5 	.word	0x08a508a5
    3788:	08a508a5 	.word	0x08a508a5
    378c:	08a508a5 	.word	0x08a508a5
    3790:	08c508c5 	.word	0x08c508c5
    3794:	08c508c5 	.word	0x08c508c5
    3798:	08c508c5 	.word	0x08c508c5
    379c:	10c510c5 	.word	0x10c510c5
    37a0:	10c510c5 	.word	0x10c510c5
    37a4:	10c510e5 	.word	0x10c510e5
    37a8:	18c618c6 	.word	0x18c618c6
    37ac:	00e510e6 	.word	0x00e510e6
    37b0:	1aec22ec 	.word	0x1aec22ec
    37b4:	09070126 	.word	0x09070126
    37b8:	092618c7 	.word	0x092618c7
    37bc:	28a518e5 	.word	0x28a518e5
    37c0:	08e728e7 	.word	0x08e728e7
    37c4:	19470927 	.word	0x19470927
    37c8:	190518e5 	.word	0x190518e5
    37cc:	11461125 	.word	0x11461125
    37d0:	20e71926 	.word	0x20e71926
    37d4:	190720e8 	.word	0x190720e8
    37d8:	20e71146 	.word	0x20e71146
    37dc:	19252127 	.word	0x19252127
    37e0:	19072125 	.word	0x19072125
    37e4:	3bd40109 	.word	0x3bd40109
    37e8:	20e6120c 	.word	0x20e6120c
    37ec:	30a740c6 	.word	0x30a740c6
    37f0:	19462129 	.word	0x19462129
    37f4:	21262165 	.word	0x21262165
    37f8:	29062108 	.word	0x29062108
    37fc:	21082127 	.word	0x21082127
    3800:	392730e7 	.word	0x392730e7
    3804:	3af018e7 	.word	0x3af018e7
    3808:	192811cc 	.word	0x192811cc
    380c:	29062906 	.word	0x29062906
    3810:	21272107 	.word	0x21272107
    3814:	28e62907 	.word	0x28e62907
    3818:	11082907 	.word	0x11082907
    381c:	20c74a6e 	.word	0x20c74a6e
    3820:	290628e7 	.word	0x290628e7
    3824:	30e628e5 	.word	0x30e628e5
    3828:	29082907 	.word	0x29082907
    382c:	20c539ca 	.word	0x20c539ca
    3830:	28e630e5 	.word	0x28e630e5
    3834:	314820e7 	.word	0x314820e7
    3838:	30c53106 	.word	0x30c53106
    383c:	20e728e6 	.word	0x20e728e6
    3840:	30c53127 	.word	0x30c53127
    3844:	28e630c5 	.word	0x28e630c5
    3848:	28c528e7 	.word	0x28c528e7
    384c:	30e53905 	.word	0x30e53905
    3850:	310728c5 	.word	0x310728c5
    3854:	312628e6 	.word	0x312628e6
    3858:	31473127 	.word	0x31473127
    385c:	31883167 	.word	0x31883167
    3860:	3a0a39a8 	.word	0x3a0a39a8
    3864:	4aed426b 	.word	0x4aed426b
    3868:	4b0d4b2d 	.word	0x4b0d4b2d
    386c:	3a09428b 	.word	0x3a09428b
    3870:	316739a8 	.word	0x316739a8
    3874:	31263127 	.word	0x31263127
    3878:	30c530e5 	.word	0x30c530e5
    387c:	28a430c4 	.word	0x28a430c4
    3880:	28842884 	.word	0x28842884
    3884:	28632884 	.word	0x28632884
    3888:	30642863 	.word	0x30642863
    388c:	30833064 	.word	0x30833064
    3890:	28632863 	.word	0x28632863
    3894:	28632863 	.word	0x28632863
    3898:	28632863 	.word	0x28632863
    389c:	28632863 	.word	0x28632863
    38a0:	28632863 	.word	0x28632863
    38a4:	28632842 	.word	0x28632842
    38a8:	28622863 	.word	0x28622863
    38ac:	28422862 	.word	0x28422862
    38b0:	28422842 	.word	0x28422842
    38b4:	28422842 	.word	0x28422842
    38b8:	28422842 	.word	0x28422842
    38bc:	28422842 	.word	0x28422842
    38c0:	28432842 	.word	0x28432842
    38c4:	20432823 	.word	0x20432823
    38c8:	20432023 	.word	0x20432023
    38cc:	30852043 	.word	0x30852043
    38d0:	30c530e6 	.word	0x30c530e6
    38d4:	20442864 	.word	0x20442864
    38d8:	20222044 	.word	0x20222044
    38dc:	20222022 	.word	0x20222022
    38e0:	20222022 	.word	0x20222022
    38e4:	20212021 	.word	0x20212021
    38e8:	20212021 	.word	0x20212021
    38ec:	20212021 	.word	0x20212021
    38f0:	20212021 	.word	0x20212021
    38f4:	20212021 	.word	0x20212021
    38f8:	20212021 	.word	0x20212021
    38fc:	20212021 	.word	0x20212021
    3900:	20212021 	.word	0x20212021
    3904:	20212021 	.word	0x20212021
    3908:	20211821 	.word	0x20211821
    390c:	20212021 	.word	0x20212021
    3910:	18212021 	.word	0x18212021
    3914:	18211821 	.word	0x18211821
    3918:	18211821 	.word	0x18211821
    391c:	18211821 	.word	0x18211821
    3920:	18211821 	.word	0x18211821
    3924:	18211821 	.word	0x18211821
    3928:	18211821 	.word	0x18211821
    392c:	18211821 	.word	0x18211821
    3930:	18001800 	.word	0x18001800
    3934:	10001800 	.word	0x10001800
    3938:	10001000 	.word	0x10001000
    393c:	10001000 	.word	0x10001000
    3940:	10001000 	.word	0x10001000
    3944:	10001000 	.word	0x10001000
    3948:	10001000 	.word	0x10001000
    394c:	10001000 	.word	0x10001000
    3950:	10001000 	.word	0x10001000
    3954:	10001000 	.word	0x10001000
    3958:	10011000 	.word	0x10011000
    395c:	10001001 	.word	0x10001001
    3960:	10001000 	.word	0x10001000
    3964:	10001000 	.word	0x10001000
    3968:	10001000 	.word	0x10001000
    396c:	10001000 	.word	0x10001000
    3970:	10001000 	.word	0x10001000
    3974:	10001000 	.word	0x10001000
    3978:	08840800 	.word	0x08840800
    397c:	08840884 	.word	0x08840884
    3980:	08840884 	.word	0x08840884
    3984:	08840884 	.word	0x08840884
    3988:	08840884 	.word	0x08840884
    398c:	08840884 	.word	0x08840884
    3990:	08840884 	.word	0x08840884
    3994:	08840884 	.word	0x08840884
    3998:	08840884 	.word	0x08840884
    399c:	08840884 	.word	0x08840884
    39a0:	08840884 	.word	0x08840884
    39a4:	08840884 	.word	0x08840884
    39a8:	08840884 	.word	0x08840884
    39ac:	08840884 	.word	0x08840884
    39b0:	08840884 	.word	0x08840884
    39b4:	08840884 	.word	0x08840884
    39b8:	08830884 	.word	0x08830884
    39bc:	08840883 	.word	0x08840883
    39c0:	08840884 	.word	0x08840884
    39c4:	08840884 	.word	0x08840884
    39c8:	08840884 	.word	0x08840884
    39cc:	08840884 	.word	0x08840884
    39d0:	08840884 	.word	0x08840884
    39d4:	08840884 	.word	0x08840884
    39d8:	08640884 	.word	0x08640884
    39dc:	08840864 	.word	0x08840864
    39e0:	08840884 	.word	0x08840884
    39e4:	08840884 	.word	0x08840884
    39e8:	08840884 	.word	0x08840884
    39ec:	08a408a4 	.word	0x08a408a4
    39f0:	08a408a4 	.word	0x08a408a4
    39f4:	08a408a4 	.word	0x08a408a4
    39f8:	08a408a4 	.word	0x08a408a4
    39fc:	08a408a4 	.word	0x08a408a4
    3a00:	08a408a4 	.word	0x08a408a4
    3a04:	08a508a5 	.word	0x08a508a5
    3a08:	08c508a5 	.word	0x08c508a5
    3a0c:	08a508a5 	.word	0x08a508a5
    3a10:	08c508c5 	.word	0x08c508c5
    3a14:	08c508c5 	.word	0x08c508c5
    3a18:	08c508c5 	.word	0x08c508c5
    3a1c:	10c508c5 	.word	0x10c508c5
    3a20:	10c510c5 	.word	0x10c510c5
    3a24:	10e510e5 	.word	0x10e510e5
    3a28:	10c510c5 	.word	0x10c510c5
    3a2c:	090610e6 	.word	0x090610e6
    3a30:	2aac0105 	.word	0x2aac0105
    3a34:	00e632cd 	.word	0x00e632cd
    3a38:	21060907 	.word	0x21060907
    3a3c:	190718e6 	.word	0x190718e6
    3a40:	19271907 	.word	0x19271907
    3a44:	11061107 	.word	0x11061107
    3a48:	21061926 	.word	0x21061926
    3a4c:	19261906 	.word	0x19261906
    3a50:	21071927 	.word	0x21071927
    3a54:	19072107 	.word	0x19072107
    3a58:	21061927 	.word	0x21061927
    3a5c:	21272147 	.word	0x21272147
    3a60:	21482107 	.word	0x21482107
    3a64:	01281148 	.word	0x01281148
    3a68:	11695c14 	.word	0x11695c14
    3a6c:	29271908 	.word	0x29271908
    3a70:	21262927 	.word	0x21262927
    3a74:	21272106 	.word	0x21272106
    3a78:	21462127 	.word	0x21462127
    3a7c:	29282127 	.word	0x29282127
    3a80:	29072907 	.word	0x29072907
    3a84:	11291908 	.word	0x11291908
    3a88:	18e75351 	.word	0x18e75351
    3a8c:	29072927 	.word	0x29072927
    3a90:	29272928 	.word	0x29272928
    3a94:	29072907 	.word	0x29072907
    3a98:	212928e6 	.word	0x212928e6
    3a9c:	41cb316a 	.word	0x41cb316a
    3aa0:	292720c6 	.word	0x292720c6
    3aa4:	31062906 	.word	0x31062906
    3aa8:	20e728e7 	.word	0x20e728e7
    3aac:	290639aa 	.word	0x290639aa
    3ab0:	28e728e6 	.word	0x28e728e6
    3ab4:	28e628e7 	.word	0x28e628e7
    3ab8:	30e53988 	.word	0x30e53988
    3abc:	20e628e6 	.word	0x20e628e6
    3ac0:	30e53948 	.word	0x30e53948
    3ac4:	28c528c5 	.word	0x28c528c5
    3ac8:	28c53948 	.word	0x28c53948
    3acc:	310630e5 	.word	0x310630e5
    3ad0:	310628c5 	.word	0x310628c5
    3ad4:	312628e6 	.word	0x312628e6
    3ad8:	31673126 	.word	0x31673126
    3adc:	31883968 	.word	0x31883968
    3ae0:	3a0a39c9 	.word	0x3a0a39c9
    3ae4:	4aed426b 	.word	0x4aed426b
    3ae8:	4b0d4b2e 	.word	0x4b0d4b2e
    3aec:	3a2a428b 	.word	0x3a2a428b
    3af0:	396739c8 	.word	0x396739c8
    3af4:	31263947 	.word	0x31263947
    3af8:	30c53105 	.word	0x30c53105
    3afc:	28a430c4 	.word	0x28a430c4
    3b00:	28842884 	.word	0x28842884
    3b04:	28842884 	.word	0x28842884
    3b08:	30642863 	.word	0x30642863
    3b0c:	30833064 	.word	0x30833064
    3b10:	28632863 	.word	0x28632863
    3b14:	28632863 	.word	0x28632863
    3b18:	28632863 	.word	0x28632863
    3b1c:	28632863 	.word	0x28632863
    3b20:	28632863 	.word	0x28632863
    3b24:	28632863 	.word	0x28632863
    3b28:	28622863 	.word	0x28622863
    3b2c:	28422862 	.word	0x28422862
    3b30:	28422842 	.word	0x28422842
    3b34:	28422842 	.word	0x28422842
    3b38:	28422842 	.word	0x28422842
    3b3c:	28422842 	.word	0x28422842
    3b40:	28422842 	.word	0x28422842
    3b44:	20432823 	.word	0x20432823
    3b48:	28432043 	.word	0x28432043
    3b4c:	30a52864 	.word	0x30a52864
    3b50:	288530c5 	.word	0x288530c5
    3b54:	20232044 	.word	0x20232044
    3b58:	20222044 	.word	0x20222044
    3b5c:	20222022 	.word	0x20222022
    3b60:	20222022 	.word	0x20222022
    3b64:	20212021 	.word	0x20212021
    3b68:	20212021 	.word	0x20212021
    3b6c:	20212021 	.word	0x20212021
    3b70:	20212021 	.word	0x20212021
    3b74:	20212021 	.word	0x20212021
    3b78:	20212021 	.word	0x20212021
    3b7c:	20212021 	.word	0x20212021
    3b80:	20212021 	.word	0x20212021
    3b84:	20212021 	.word	0x20212021
    3b88:	20212021 	.word	0x20212021
    3b8c:	20212021 	.word	0x20212021
    3b90:	18212021 	.word	0x18212021
    3b94:	18211821 	.word	0x18211821
    3b98:	18211821 	.word	0x18211821
    3b9c:	18211821 	.word	0x18211821
    3ba0:	18211821 	.word	0x18211821
    3ba4:	18211821 	.word	0x18211821
    3ba8:	18211821 	.word	0x18211821
    3bac:	18211821 	.word	0x18211821
    3bb0:	18001821 	.word	0x18001821
    3bb4:	18001800 	.word	0x18001800
    3bb8:	18001800 	.word	0x18001800
    3bbc:	18001800 	.word	0x18001800
    3bc0:	18001800 	.word	0x18001800
    3bc4:	18001800 	.word	0x18001800
    3bc8:	10001000 	.word	0x10001000
    3bcc:	10001000 	.word	0x10001000
    3bd0:	10001000 	.word	0x10001000
    3bd4:	10001000 	.word	0x10001000
    3bd8:	10011000 	.word	0x10011000
    3bdc:	10001001 	.word	0x10001001
    3be0:	10001000 	.word	0x10001000
    3be4:	10001000 	.word	0x10001000
    3be8:	10001000 	.word	0x10001000
    3bec:	10001000 	.word	0x10001000
    3bf0:	10001000 	.word	0x10001000
    3bf4:	10001000 	.word	0x10001000
    3bf8:	08841000 	.word	0x08841000
    3bfc:	08840884 	.word	0x08840884
    3c00:	08840884 	.word	0x08840884
    3c04:	08840884 	.word	0x08840884
    3c08:	08840884 	.word	0x08840884
    3c0c:	08840884 	.word	0x08840884
    3c10:	08840884 	.word	0x08840884
    3c14:	08840884 	.word	0x08840884
    3c18:	08840884 	.word	0x08840884
    3c1c:	08840884 	.word	0x08840884
    3c20:	08840884 	.word	0x08840884
    3c24:	08840884 	.word	0x08840884
    3c28:	08840884 	.word	0x08840884
    3c2c:	08840884 	.word	0x08840884
    3c30:	08840884 	.word	0x08840884
    3c34:	08840884 	.word	0x08840884
    3c38:	08830884 	.word	0x08830884
    3c3c:	08840883 	.word	0x08840883
    3c40:	08840884 	.word	0x08840884
    3c44:	08840884 	.word	0x08840884
    3c48:	08840884 	.word	0x08840884
    3c4c:	08840884 	.word	0x08840884
    3c50:	08840884 	.word	0x08840884
    3c54:	08840884 	.word	0x08840884
    3c58:	08640884 	.word	0x08640884
    3c5c:	08840884 	.word	0x08840884
    3c60:	08840884 	.word	0x08840884
    3c64:	08840884 	.word	0x08840884
    3c68:	08840884 	.word	0x08840884
    3c6c:	08a408a4 	.word	0x08a408a4
    3c70:	088408a4 	.word	0x088408a4
    3c74:	08a408a4 	.word	0x08a408a4
    3c78:	08a408a4 	.word	0x08a408a4
    3c7c:	08a408a4 	.word	0x08a408a4
    3c80:	08a408a4 	.word	0x08a408a4
    3c84:	08a508a5 	.word	0x08a508a5
    3c88:	08c508a5 	.word	0x08c508a5
    3c8c:	08a508a5 	.word	0x08a508a5
    3c90:	08c508c5 	.word	0x08c508c5
    3c94:	08c508c5 	.word	0x08c508c5
    3c98:	08e510c5 	.word	0x08e510c5
    3c9c:	10c508e5 	.word	0x10c508e5
    3ca0:	10c510c5 	.word	0x10c510c5
    3ca4:	10e510e5 	.word	0x10e510e5
    3ca8:	110610e6 	.word	0x110610e6
    3cac:	10c610e6 	.word	0x10c610e6
    3cb0:	08e61107 	.word	0x08e61107
    3cb4:	3b2e328c 	.word	0x3b2e328c
    3cb8:	18a50146 	.word	0x18a50146
    3cbc:	09271107 	.word	0x09271107
    3cc0:	19260927 	.word	0x19260927
    3cc4:	19271906 	.word	0x19271906
    3cc8:	19071927 	.word	0x19071927
    3ccc:	19072107 	.word	0x19072107
    3cd0:	19261927 	.word	0x19261927
    3cd4:	19271926 	.word	0x19271926
    3cd8:	19261908 	.word	0x19261908
    3cdc:	29072106 	.word	0x29072106
    3ce0:	192818e8 	.word	0x192818e8
    3ce4:	19062126 	.word	0x19062126
    3ce8:	4bf419aa 	.word	0x4bf419aa
    3cec:	11460169 	.word	0x11460169
    3cf0:	31063125 	.word	0x31063125
    3cf4:	21282949 	.word	0x21282949
    3cf8:	19472906 	.word	0x19472906
    3cfc:	29262126 	.word	0x29262126
    3d00:	21292928 	.word	0x21292928
    3d04:	21082149 	.word	0x21082149
    3d08:	426d39cb 	.word	0x426d39cb
    3d0c:	29071908 	.word	0x29071908
    3d10:	29073127 	.word	0x29073127
    3d14:	21272107 	.word	0x21272107
    3d18:	29082926 	.word	0x29082926
    3d1c:	526e20e8 	.word	0x526e20e8
    3d20:	290720e7 	.word	0x290720e7
    3d24:	28e63127 	.word	0x28e63127
    3d28:	28e62906 	.word	0x28e62906
    3d2c:	39893128 	.word	0x39893128
    3d30:	28e62907 	.word	0x28e62907
    3d34:	28e628e6 	.word	0x28e628e6
    3d38:	30e63969 	.word	0x30e63969
    3d3c:	28e628e6 	.word	0x28e628e6
    3d40:	31273107 	.word	0x31273107
    3d44:	28c528e6 	.word	0x28c528e6
    3d48:	28e63947 	.word	0x28e63947
    3d4c:	392728c5 	.word	0x392728c5
    3d50:	310628c5 	.word	0x310628c5
    3d54:	31263106 	.word	0x31263106
    3d58:	31673126 	.word	0x31673126
    3d5c:	39883988 	.word	0x39883988
    3d60:	3a0a39c9 	.word	0x3a0a39c9
    3d64:	4aed426b 	.word	0x4aed426b
    3d68:	4b0d4b2e 	.word	0x4b0d4b2e
    3d6c:	3a2a42ac 	.word	0x3a2a42ac
    3d70:	396839c9 	.word	0x396839c9
    3d74:	31263947 	.word	0x31263947
    3d78:	30c53105 	.word	0x30c53105
    3d7c:	28a430c5 	.word	0x28a430c5
    3d80:	28842884 	.word	0x28842884
    3d84:	28842884 	.word	0x28842884
    3d88:	30642863 	.word	0x30642863
    3d8c:	30833064 	.word	0x30833064
    3d90:	28632863 	.word	0x28632863
    3d94:	28632863 	.word	0x28632863
    3d98:	28632863 	.word	0x28632863
    3d9c:	28632863 	.word	0x28632863
    3da0:	28632863 	.word	0x28632863
    3da4:	28632863 	.word	0x28632863
    3da8:	28622863 	.word	0x28622863
    3dac:	28622862 	.word	0x28622862
    3db0:	28422862 	.word	0x28422862
    3db4:	28422842 	.word	0x28422842
    3db8:	28622842 	.word	0x28622842
    3dbc:	28422842 	.word	0x28422842
    3dc0:	28422842 	.word	0x28422842
    3dc4:	28432842 	.word	0x28432842
    3dc8:	28432043 	.word	0x28432043
    3dcc:	28642843 	.word	0x28642843
    3dd0:	28432884 	.word	0x28432884
    3dd4:	20232023 	.word	0x20232023
    3dd8:	20222043 	.word	0x20222043
    3ddc:	20222022 	.word	0x20222022
    3de0:	20222022 	.word	0x20222022
    3de4:	20222022 	.word	0x20222022
    3de8:	20212021 	.word	0x20212021
    3dec:	20212021 	.word	0x20212021
    3df0:	20212021 	.word	0x20212021
    3df4:	20212021 	.word	0x20212021
    3df8:	20212021 	.word	0x20212021
    3dfc:	20212021 	.word	0x20212021
    3e00:	20212021 	.word	0x20212021
    3e04:	20212021 	.word	0x20212021
    3e08:	20212021 	.word	0x20212021
    3e0c:	20212021 	.word	0x20212021
    3e10:	20212021 	.word	0x20212021
    3e14:	18211821 	.word	0x18211821
    3e18:	18211801 	.word	0x18211801
    3e1c:	18211821 	.word	0x18211821
    3e20:	18211821 	.word	0x18211821
    3e24:	18011801 	.word	0x18011801
    3e28:	18211821 	.word	0x18211821
    3e2c:	18211821 	.word	0x18211821
    3e30:	18001821 	.word	0x18001821
    3e34:	18001800 	.word	0x18001800
    3e38:	18001800 	.word	0x18001800
    3e3c:	18001800 	.word	0x18001800
    3e40:	18001800 	.word	0x18001800
    3e44:	18001800 	.word	0x18001800
    3e48:	10001800 	.word	0x10001800
    3e4c:	10001000 	.word	0x10001000
    3e50:	10001000 	.word	0x10001000
    3e54:	10001000 	.word	0x10001000
    3e58:	10011000 	.word	0x10011000
    3e5c:	10001001 	.word	0x10001001
    3e60:	10001000 	.word	0x10001000
    3e64:	10001000 	.word	0x10001000
    3e68:	10001000 	.word	0x10001000
    3e6c:	10001000 	.word	0x10001000
    3e70:	10001000 	.word	0x10001000
    3e74:	10001000 	.word	0x10001000
    3e78:	08841000 	.word	0x08841000
    3e7c:	08840884 	.word	0x08840884
    3e80:	08840884 	.word	0x08840884
    3e84:	08840884 	.word	0x08840884
    3e88:	08840884 	.word	0x08840884
    3e8c:	08840884 	.word	0x08840884
    3e90:	08840884 	.word	0x08840884
    3e94:	08840884 	.word	0x08840884
    3e98:	08840884 	.word	0x08840884
    3e9c:	08840884 	.word	0x08840884
    3ea0:	08840884 	.word	0x08840884
    3ea4:	08840884 	.word	0x08840884
    3ea8:	08840884 	.word	0x08840884
    3eac:	08840884 	.word	0x08840884
    3eb0:	08840884 	.word	0x08840884
    3eb4:	08840884 	.word	0x08840884
    3eb8:	08830884 	.word	0x08830884
    3ebc:	08840883 	.word	0x08840883
    3ec0:	08840884 	.word	0x08840884
    3ec4:	08840884 	.word	0x08840884
    3ec8:	08840884 	.word	0x08840884
    3ecc:	08840884 	.word	0x08840884
    3ed0:	08840884 	.word	0x08840884
    3ed4:	08840884 	.word	0x08840884
    3ed8:	08840884 	.word	0x08840884
    3edc:	08840884 	.word	0x08840884
    3ee0:	08840884 	.word	0x08840884
    3ee4:	08840884 	.word	0x08840884
    3ee8:	08a40084 	.word	0x08a40084
    3eec:	088408a4 	.word	0x088408a4
    3ef0:	08a408a4 	.word	0x08a408a4
    3ef4:	08a408a4 	.word	0x08a408a4
    3ef8:	08a408a4 	.word	0x08a408a4
    3efc:	08a408a4 	.word	0x08a408a4
    3f00:	08a508a4 	.word	0x08a508a4
    3f04:	08a508a5 	.word	0x08a508a5
    3f08:	08c508a5 	.word	0x08c508a5
    3f0c:	08c508c5 	.word	0x08c508c5
    3f10:	08c508c5 	.word	0x08c508c5
    3f14:	08c508c5 	.word	0x08c508c5
    3f18:	08e510c5 	.word	0x08e510c5
    3f1c:	08e508e5 	.word	0x08e508e5
    3f20:	10c510e5 	.word	0x10c510e5
    3f24:	10e610c5 	.word	0x10e610c5
    3f28:	09060906 	.word	0x09060906
    3f2c:	10c61106 	.word	0x10c61106
    3f30:	18c620c6 	.word	0x18c620c6
    3f34:	22ac08c6 	.word	0x22ac08c6
    3f38:	09072b6e 	.word	0x09072b6e
    3f3c:	11271127 	.word	0x11271127
    3f40:	11251947 	.word	0x11251947
    3f44:	19061946 	.word	0x19061946
    3f48:	19081907 	.word	0x19081907
    3f4c:	21071908 	.word	0x21071908
    3f50:	19462106 	.word	0x19462106
    3f54:	19471946 	.word	0x19471946
    3f58:	21272128 	.word	0x21272128
    3f5c:	29482107 	.word	0x29482107
    3f60:	19682169 	.word	0x19682169
    3f64:	28e62127 	.word	0x28e62127
    3f68:	228f1908 	.word	0x228f1908
    3f6c:	09673bb2 	.word	0x09673bb2
    3f70:	29272126 	.word	0x29272126
    3f74:	21282129 	.word	0x21282129
    3f78:	21683126 	.word	0x21683126
    3f7c:	29262926 	.word	0x29262926
    3f80:	21692127 	.word	0x21692127
    3f84:	29072928 	.word	0x29072928
    3f88:	5b7318e7 	.word	0x5b7318e7
    3f8c:	2107196a 	.word	0x2107196a
    3f90:	31063906 	.word	0x31063906
    3f94:	29482928 	.word	0x29482928
    3f98:	31072927 	.word	0x31072927
    3f9c:	298a2928 	.word	0x298a2928
    3fa0:	20e7422c 	.word	0x20e7422c
    3fa4:	290728e7 	.word	0x290728e7
    3fa8:	31063106 	.word	0x31063106
    3fac:	41cb28e6 	.word	0x41cb28e6
    3fb0:	28e72108 	.word	0x28e72108
    3fb4:	310630e5 	.word	0x310630e5
    3fb8:	31483107 	.word	0x31483107
    3fbc:	310628e6 	.word	0x310628e6
    3fc0:	396828c5 	.word	0x396828c5
    3fc4:	30c628e6 	.word	0x30c628e6
    3fc8:	310630e6 	.word	0x310630e6
    3fcc:	312728a5 	.word	0x312728a5
    3fd0:	30e630e6 	.word	0x30e630e6
    3fd4:	31063127 	.word	0x31063127
    3fd8:	31473127 	.word	0x31473127
    3fdc:	39883988 	.word	0x39883988
    3fe0:	420a39c9 	.word	0x420a39c9
    3fe4:	4aed426c 	.word	0x4aed426c
    3fe8:	4b2e4b2e 	.word	0x4b2e4b2e
    3fec:	3a2a42ac 	.word	0x3a2a42ac
    3ff0:	396839c9 	.word	0x396839c9
    3ff4:	31263947 	.word	0x31263947
    3ff8:	30e53106 	.word	0x30e53106
    3ffc:	28a430c5 	.word	0x28a430c5
    4000:	288428a4 	.word	0x288428a4
    4004:	28843084 	.word	0x28843084
    4008:	30643064 	.word	0x30643064
    400c:	30833064 	.word	0x30833064
    4010:	30833083 	.word	0x30833083
    4014:	30833083 	.word	0x30833083
    4018:	28633083 	.word	0x28633083
    401c:	28632863 	.word	0x28632863
    4020:	28632863 	.word	0x28632863
    4024:	28632863 	.word	0x28632863
    4028:	28422843 	.word	0x28422843
    402c:	28622862 	.word	0x28622862
    4030:	28422862 	.word	0x28422862
    4034:	28422842 	.word	0x28422842
    4038:	28622842 	.word	0x28622842
    403c:	28422842 	.word	0x28422842
    4040:	28422842 	.word	0x28422842
    4044:	28422842 	.word	0x28422842
    4048:	28432842 	.word	0x28432842
    404c:	20432043 	.word	0x20432043
    4050:	20432043 	.word	0x20432043
    4054:	20432043 	.word	0x20432043
    4058:	20222022 	.word	0x20222022
    405c:	20222022 	.word	0x20222022
    4060:	20222022 	.word	0x20222022
    4064:	20212022 	.word	0x20212022
    4068:	20212021 	.word	0x20212021
    406c:	20212021 	.word	0x20212021
    4070:	20212021 	.word	0x20212021
    4074:	20212021 	.word	0x20212021
    4078:	20212021 	.word	0x20212021
    407c:	20212021 	.word	0x20212021
    4080:	20212021 	.word	0x20212021
    4084:	20212021 	.word	0x20212021
    4088:	20212021 	.word	0x20212021
    408c:	20212021 	.word	0x20212021
    4090:	20212021 	.word	0x20212021
    4094:	18212021 	.word	0x18212021
    4098:	18211821 	.word	0x18211821
    409c:	18211821 	.word	0x18211821
    40a0:	18211821 	.word	0x18211821
    40a4:	18011801 	.word	0x18011801
    40a8:	18011801 	.word	0x18011801
    40ac:	18211821 	.word	0x18211821
    40b0:	18211821 	.word	0x18211821
    40b4:	18001800 	.word	0x18001800
    40b8:	18001821 	.word	0x18001821
    40bc:	18001800 	.word	0x18001800
    40c0:	18001800 	.word	0x18001800
    40c4:	18001800 	.word	0x18001800
    40c8:	18001800 	.word	0x18001800
    40cc:	10001000 	.word	0x10001000
    40d0:	10001000 	.word	0x10001000
    40d4:	10001000 	.word	0x10001000
    40d8:	10011000 	.word	0x10011000
    40dc:	10011001 	.word	0x10011001
    40e0:	10001000 	.word	0x10001000
    40e4:	10001000 	.word	0x10001000
    40e8:	10001000 	.word	0x10001000
    40ec:	10001000 	.word	0x10001000
    40f0:	10001000 	.word	0x10001000
    40f4:	10001000 	.word	0x10001000
    40f8:	08841000 	.word	0x08841000
    40fc:	08840884 	.word	0x08840884
    4100:	08840884 	.word	0x08840884
    4104:	08840884 	.word	0x08840884
    4108:	08840884 	.word	0x08840884
    410c:	08840884 	.word	0x08840884
    4110:	08840884 	.word	0x08840884
    4114:	08840884 	.word	0x08840884
    4118:	08840884 	.word	0x08840884
    411c:	08840884 	.word	0x08840884
    4120:	08840884 	.word	0x08840884
    4124:	08840884 	.word	0x08840884
    4128:	08840884 	.word	0x08840884
    412c:	08840884 	.word	0x08840884
    4130:	08840884 	.word	0x08840884
    4134:	08840884 	.word	0x08840884
    4138:	08830884 	.word	0x08830884
    413c:	08840883 	.word	0x08840883
    4140:	08840884 	.word	0x08840884
    4144:	08840884 	.word	0x08840884
    4148:	08840884 	.word	0x08840884
    414c:	08840884 	.word	0x08840884
    4150:	08840884 	.word	0x08840884
    4154:	08840884 	.word	0x08840884
    4158:	08840884 	.word	0x08840884
    415c:	08840884 	.word	0x08840884
    4160:	08840884 	.word	0x08840884
    4164:	00840884 	.word	0x00840884
    4168:	08a40084 	.word	0x08a40084
    416c:	088408a4 	.word	0x088408a4
    4170:	08a408a4 	.word	0x08a408a4
    4174:	08a408a4 	.word	0x08a408a4
    4178:	08a408a4 	.word	0x08a408a4
    417c:	08a408a4 	.word	0x08a408a4
    4180:	08a508a4 	.word	0x08a508a4
    4184:	08c508a5 	.word	0x08c508a5
    4188:	08c508c5 	.word	0x08c508c5
    418c:	08c508c5 	.word	0x08c508c5
    4190:	08c508c5 	.word	0x08c508c5
    4194:	08c508c5 	.word	0x08c508c5
    4198:	10c510c5 	.word	0x10c510c5
    419c:	08e510c5 	.word	0x08e510c5
    41a0:	10e610e6 	.word	0x10e610e6
    41a4:	10e610e6 	.word	0x10e610e6
    41a8:	01050906 	.word	0x01050906
    41ac:	19270926 	.word	0x19270926
    41b0:	18a618c6 	.word	0x18a618c6
    41b4:	01261107 	.word	0x01261107
    41b8:	33711acc 	.word	0x33711acc
    41bc:	21260106 	.word	0x21260106
    41c0:	19272106 	.word	0x19272106
    41c4:	19261947 	.word	0x19261947
    41c8:	190818e6 	.word	0x190818e6
    41cc:	21271928 	.word	0x21271928
    41d0:	19272126 	.word	0x19272126
    41d4:	19471948 	.word	0x19471948
    41d8:	21272126 	.word	0x21272126
    41dc:	19062127 	.word	0x19062127
    41e0:	11271967 	.word	0x11271967
    41e4:	31492148 	.word	0x31492148
    41e8:	11072908 	.word	0x11072908
    41ec:	2a8d4b90 	.word	0x2a8d4b90
    41f0:	21491149 	.word	0x21491149
    41f4:	21272948 	.word	0x21272948
    41f8:	29482947 	.word	0x29482947
    41fc:	29262947 	.word	0x29262947
    4200:	29482927 	.word	0x29482927
    4204:	20e72928 	.word	0x20e72928
    4208:	116a216a 	.word	0x116a216a
    420c:	21285393 	.word	0x21285393
    4210:	38e63106 	.word	0x38e63106
    4214:	29283107 	.word	0x29283107
    4218:	39062928 	.word	0x39062928
    421c:	19082927 	.word	0x19082927
    4220:	21084a8e 	.word	0x21084a8e
    4224:	31272908 	.word	0x31272908
    4228:	31053106 	.word	0x31053106
    422c:	398a3107 	.word	0x398a3107
    4230:	29072949 	.word	0x29072949
    4234:	30e63106 	.word	0x30e63106
    4238:	39aa28e7 	.word	0x39aa28e7
    423c:	30e528e6 	.word	0x30e528e6
    4240:	396928c6 	.word	0x396928c6
    4244:	30e62907 	.word	0x30e62907
    4248:	392730c5 	.word	0x392730c5
    424c:	310728c6 	.word	0x310728c6
    4250:	30e53926 	.word	0x30e53926
    4254:	31063927 	.word	0x31063927
    4258:	31473947 	.word	0x31473947
    425c:	39883968 	.word	0x39883968
    4260:	420a39c9 	.word	0x420a39c9
    4264:	4aed426c 	.word	0x4aed426c
    4268:	4b0e532e 	.word	0x4b0e532e
    426c:	3a2a42ac 	.word	0x3a2a42ac
    4270:	396839c9 	.word	0x396839c9
    4274:	39263947 	.word	0x39263947
    4278:	30e53105 	.word	0x30e53105
    427c:	30a430c5 	.word	0x30a430c5
    4280:	308430a4 	.word	0x308430a4
    4284:	28843084 	.word	0x28843084
    4288:	30643084 	.word	0x30643084
    428c:	30643064 	.word	0x30643064
    4290:	30833083 	.word	0x30833083
    4294:	30833083 	.word	0x30833083
    4298:	30633083 	.word	0x30633083
    429c:	30633063 	.word	0x30633063
    42a0:	30633063 	.word	0x30633063
    42a4:	28633063 	.word	0x28633063
    42a8:	28422863 	.word	0x28422863
    42ac:	28622862 	.word	0x28622862
    42b0:	28622862 	.word	0x28622862
    42b4:	28422842 	.word	0x28422842
    42b8:	28422842 	.word	0x28422842
    42bc:	28422842 	.word	0x28422842
    42c0:	28422842 	.word	0x28422842
    42c4:	28422842 	.word	0x28422842
    42c8:	28422842 	.word	0x28422842
    42cc:	28422842 	.word	0x28422842
    42d0:	28422842 	.word	0x28422842
    42d4:	28422842 	.word	0x28422842
    42d8:	28422042 	.word	0x28422042
    42dc:	28422842 	.word	0x28422842
    42e0:	20412041 	.word	0x20412041
    42e4:	20412041 	.word	0x20412041
    42e8:	20212041 	.word	0x20212041
    42ec:	20212021 	.word	0x20212021
    42f0:	20212021 	.word	0x20212021
    42f4:	20212021 	.word	0x20212021
    42f8:	20212021 	.word	0x20212021
    42fc:	20212021 	.word	0x20212021
    4300:	20212021 	.word	0x20212021
    4304:	20212021 	.word	0x20212021
    4308:	20212021 	.word	0x20212021
    430c:	20212021 	.word	0x20212021
    4310:	20212021 	.word	0x20212021
    4314:	20212021 	.word	0x20212021
    4318:	20211821 	.word	0x20211821
    431c:	18211821 	.word	0x18211821
    4320:	18211821 	.word	0x18211821
    4324:	18001821 	.word	0x18001821
    4328:	18001800 	.word	0x18001800
    432c:	18001800 	.word	0x18001800
    4330:	18201820 	.word	0x18201820
    4334:	18201820 	.word	0x18201820
    4338:	18011820 	.word	0x18011820
    433c:	18211801 	.word	0x18211801
    4340:	18001800 	.word	0x18001800
    4344:	18001800 	.word	0x18001800
    4348:	18001800 	.word	0x18001800
    434c:	18001800 	.word	0x18001800
    4350:	10001000 	.word	0x10001000
    4354:	10001000 	.word	0x10001000
    4358:	10011000 	.word	0x10011000
    435c:	10011001 	.word	0x10011001
    4360:	10001000 	.word	0x10001000
    4364:	10001000 	.word	0x10001000
    4368:	10011000 	.word	0x10011000
    436c:	10001000 	.word	0x10001000
    4370:	10001000 	.word	0x10001000
    4374:	10001000 	.word	0x10001000
    4378:	08841000 	.word	0x08841000
    437c:	08840884 	.word	0x08840884
    4380:	08840884 	.word	0x08840884
    4384:	08840884 	.word	0x08840884
    4388:	08840884 	.word	0x08840884
    438c:	08840884 	.word	0x08840884
    4390:	08840884 	.word	0x08840884
    4394:	08840884 	.word	0x08840884
    4398:	08840884 	.word	0x08840884
    439c:	08840884 	.word	0x08840884
    43a0:	08840884 	.word	0x08840884
    43a4:	08840884 	.word	0x08840884
    43a8:	08840884 	.word	0x08840884
    43ac:	08840884 	.word	0x08840884
    43b0:	08840884 	.word	0x08840884
    43b4:	08840884 	.word	0x08840884
    43b8:	08830884 	.word	0x08830884
    43bc:	08840883 	.word	0x08840883
    43c0:	08840884 	.word	0x08840884
    43c4:	08840884 	.word	0x08840884
    43c8:	08840884 	.word	0x08840884
    43cc:	08840884 	.word	0x08840884
    43d0:	08840884 	.word	0x08840884
    43d4:	08840884 	.word	0x08840884
    43d8:	088408a4 	.word	0x088408a4
    43dc:	08840884 	.word	0x08840884
    43e0:	00840884 	.word	0x00840884
    43e4:	08a408a4 	.word	0x08a408a4
    43e8:	08a408a4 	.word	0x08a408a4
    43ec:	08a408a4 	.word	0x08a408a4
    43f0:	08a408a4 	.word	0x08a408a4
    43f4:	08a408a4 	.word	0x08a408a4
    43f8:	08a408a4 	.word	0x08a408a4
    43fc:	08a408a4 	.word	0x08a408a4
    4400:	08a508a5 	.word	0x08a508a5
    4404:	08c508a5 	.word	0x08c508a5
    4408:	08c508c5 	.word	0x08c508c5
    440c:	08c508c5 	.word	0x08c508c5
    4410:	08c508c5 	.word	0x08c508c5
    4414:	10c508c5 	.word	0x10c508c5
    4418:	10c510e5 	.word	0x10c510e5
    441c:	10e610c5 	.word	0x10e610c5
    4420:	10e610e6 	.word	0x10e610e6
    4424:	10e618e6 	.word	0x10e618e6
    4428:	09461106 	.word	0x09461106
    442c:	11260926 	.word	0x11260926
    4430:	21481106 	.word	0x21481106
    4434:	08e61907 	.word	0x08e61907
    4438:	1aad00e6 	.word	0x1aad00e6
    443c:	01054bb1 	.word	0x01054bb1
    4440:	20e61906 	.word	0x20e61906
    4444:	214820e7 	.word	0x214820e7
    4448:	19271927 	.word	0x19271927
    444c:	19271927 	.word	0x19271927
    4450:	19281927 	.word	0x19281927
    4454:	21272127 	.word	0x21272127
    4458:	21272146 	.word	0x21272146
    445c:	21482148 	.word	0x21482148
    4460:	21682147 	.word	0x21682147
    4464:	21282148 	.word	0x21282148
    4468:	29463127 	.word	0x29463127
    446c:	5c760947 	.word	0x5c760947
    4470:	192811ed 	.word	0x192811ed
    4474:	21273127 	.word	0x21273127
    4478:	31071989 	.word	0x31071989
    447c:	21273148 	.word	0x21273148
    4480:	29482969 	.word	0x29482969
    4484:	31692948 	.word	0x31692948
    4488:	19482128 	.word	0x19482128
    448c:	322d3a8e 	.word	0x322d3a8e
    4490:	39282128 	.word	0x39282128
    4494:	31273906 	.word	0x31273906
    4498:	39062908 	.word	0x39062908
    449c:	29483107 	.word	0x29483107
    44a0:	420d298a 	.word	0x420d298a
    44a4:	29072929 	.word	0x29072929
    44a8:	31053106 	.word	0x31053106
    44ac:	29083107 	.word	0x29083107
    44b0:	290741cc 	.word	0x290741cc
    44b4:	30e63126 	.word	0x30e63126
    44b8:	316930e7 	.word	0x316930e7
    44bc:	30e53927 	.word	0x30e53927
    44c0:	29083106 	.word	0x29083106
    44c4:	30e63148 	.word	0x30e63148
    44c8:	392730c5 	.word	0x392730c5
    44cc:	28e628e7 	.word	0x28e628e7
    44d0:	30e53927 	.word	0x30e53927
    44d4:	31063927 	.word	0x31063927
    44d8:	31473947 	.word	0x31473947
    44dc:	39883988 	.word	0x39883988
    44e0:	420a39c9 	.word	0x420a39c9
    44e4:	4aee426c 	.word	0x4aee426c
    44e8:	532e532e 	.word	0x532e532e
    44ec:	422a42ac 	.word	0x422a42ac
    44f0:	398839c9 	.word	0x398839c9
    44f4:	39263947 	.word	0x39263947
    44f8:	30c53105 	.word	0x30c53105
    44fc:	30c530c5 	.word	0x30c530c5
    4500:	308430a4 	.word	0x308430a4
    4504:	30843084 	.word	0x30843084
    4508:	30843084 	.word	0x30843084
    450c:	30843084 	.word	0x30843084
    4510:	30633063 	.word	0x30633063
    4514:	30833083 	.word	0x30833083
    4518:	30633083 	.word	0x30633083
    451c:	30633063 	.word	0x30633063
    4520:	30633063 	.word	0x30633063
    4524:	30633063 	.word	0x30633063
    4528:	30633063 	.word	0x30633063
    452c:	30633063 	.word	0x30633063
    4530:	28422862 	.word	0x28422862
    4534:	28422842 	.word	0x28422842
    4538:	28422842 	.word	0x28422842
    453c:	28422842 	.word	0x28422842
    4540:	28422862 	.word	0x28422862
    4544:	28422842 	.word	0x28422842
    4548:	28422842 	.word	0x28422842
    454c:	28422842 	.word	0x28422842
    4550:	20412842 	.word	0x20412842
    4554:	28422842 	.word	0x28422842
    4558:	28422842 	.word	0x28422842
    455c:	28422842 	.word	0x28422842
    4560:	28422842 	.word	0x28422842
    4564:	28212821 	.word	0x28212821
    4568:	28212821 	.word	0x28212821
    456c:	20212021 	.word	0x20212021
    4570:	20212021 	.word	0x20212021
    4574:	20212021 	.word	0x20212021
    4578:	20212021 	.word	0x20212021
    457c:	20212021 	.word	0x20212021
    4580:	20212021 	.word	0x20212021
    4584:	20212021 	.word	0x20212021
    4588:	20212021 	.word	0x20212021
    458c:	20212021 	.word	0x20212021
    4590:	20212021 	.word	0x20212021
    4594:	20212021 	.word	0x20212021
    4598:	20212021 	.word	0x20212021
    459c:	18212021 	.word	0x18212021
    45a0:	18211821 	.word	0x18211821
    45a4:	18211801 	.word	0x18211801
    45a8:	18211821 	.word	0x18211821
    45ac:	18001821 	.word	0x18001821
    45b0:	18211821 	.word	0x18211821
    45b4:	18001821 	.word	0x18001821
    45b8:	18011800 	.word	0x18011800
    45bc:	18011801 	.word	0x18011801
    45c0:	18001801 	.word	0x18001801
    45c4:	18001800 	.word	0x18001800
    45c8:	18001800 	.word	0x18001800
    45cc:	18001800 	.word	0x18001800
    45d0:	18001800 	.word	0x18001800
    45d4:	10001000 	.word	0x10001000
    45d8:	18011000 	.word	0x18011000
    45dc:	10011001 	.word	0x10011001
    45e0:	10001000 	.word	0x10001000
    45e4:	10001000 	.word	0x10001000
    45e8:	10011000 	.word	0x10011000
    45ec:	10001000 	.word	0x10001000
    45f0:	10001000 	.word	0x10001000
    45f4:	10001000 	.word	0x10001000
    45f8:	08841000 	.word	0x08841000
    45fc:	08840884 	.word	0x08840884
    4600:	08840884 	.word	0x08840884
    4604:	08840884 	.word	0x08840884
    4608:	08840884 	.word	0x08840884
    460c:	08840884 	.word	0x08840884
    4610:	08840884 	.word	0x08840884
    4614:	08840884 	.word	0x08840884
    4618:	08840884 	.word	0x08840884
    461c:	08840884 	.word	0x08840884
    4620:	08840884 	.word	0x08840884
    4624:	08840884 	.word	0x08840884
    4628:	08840884 	.word	0x08840884
    462c:	08840884 	.word	0x08840884
    4630:	08840884 	.word	0x08840884
    4634:	08840884 	.word	0x08840884
    4638:	08830884 	.word	0x08830884
    463c:	08840883 	.word	0x08840883
    4640:	08840884 	.word	0x08840884
    4644:	08840884 	.word	0x08840884
    4648:	08840884 	.word	0x08840884
    464c:	08840884 	.word	0x08840884
    4650:	08840884 	.word	0x08840884
    4654:	08840884 	.word	0x08840884
    4658:	08a408a4 	.word	0x08a408a4
    465c:	08a408a4 	.word	0x08a408a4
    4660:	00840084 	.word	0x00840084
    4664:	08a408a4 	.word	0x08a408a4
    4668:	08a408a4 	.word	0x08a408a4
    466c:	08a408a4 	.word	0x08a408a4
    4670:	08a408a4 	.word	0x08a408a4
    4674:	08a408a4 	.word	0x08a408a4
    4678:	08a408a4 	.word	0x08a408a4
    467c:	08a508a4 	.word	0x08a508a4
    4680:	08c508a5 	.word	0x08c508a5
    4684:	08c508a5 	.word	0x08c508a5
    4688:	08c508c5 	.word	0x08c508c5
    468c:	08c508c5 	.word	0x08c508c5
    4690:	10c508c5 	.word	0x10c508c5
    4694:	10c508c5 	.word	0x10c508c5
    4698:	10c510e5 	.word	0x10c510e5
    469c:	10e610c5 	.word	0x10e610c5
    46a0:	10e610e6 	.word	0x10e610e6
    46a4:	10e610e6 	.word	0x10e610e6
    46a8:	090610e6 	.word	0x090610e6
    46ac:	01050946 	.word	0x01050946
    46b0:	11260926 	.word	0x11260926
    46b4:	19071906 	.word	0x19071906
    46b8:	08e62107 	.word	0x08e62107
    46bc:	3bf122ad 	.word	0x3bf122ad
    46c0:	21070147 	.word	0x21070147
    46c4:	212828e7 	.word	0x212828e7
    46c8:	19471147 	.word	0x19471147
    46cc:	19481947 	.word	0x19481947
    46d0:	19481949 	.word	0x19481949
    46d4:	29272127 	.word	0x29272127
    46d8:	19462147 	.word	0x19462147
    46dc:	21282147 	.word	0x21282147
    46e0:	21072128 	.word	0x21072128
    46e4:	29472969 	.word	0x29472969
    46e8:	29462906 	.word	0x29462906
    46ec:	016a1168 	.word	0x016a1168
    46f0:	112964b7 	.word	0x112964b7
    46f4:	31682927 	.word	0x31682927
    46f8:	31461969 	.word	0x31461969
    46fc:	29482947 	.word	0x29482947
    4700:	316a2928 	.word	0x316a2928
    4704:	29283149 	.word	0x29283149
    4708:	31673147 	.word	0x31673147
    470c:	5bb51107 	.word	0x5bb51107
    4710:	28e8192b 	.word	0x28e8192b
    4714:	31063906 	.word	0x31063906
    4718:	39072968 	.word	0x39072968
    471c:	29073127 	.word	0x29073127
    4720:	4a8f2128 	.word	0x4a8f2128
    4724:	29072109 	.word	0x29072109
    4728:	31263127 	.word	0x31263127
    472c:	28e73107 	.word	0x28e73107
    4730:	314941ab 	.word	0x314941ab
    4734:	31272907 	.word	0x31272907
    4738:	290838e6 	.word	0x290838e6
    473c:	31064189 	.word	0x31064189
    4740:	28e73107 	.word	0x28e73107
    4744:	39063969 	.word	0x39063969
    4748:	392730c5 	.word	0x392730c5
    474c:	28e63107 	.word	0x28e63107
    4750:	30e63927 	.word	0x30e63927
    4754:	39273927 	.word	0x39273927
    4758:	31673947 	.word	0x31673947
    475c:	39883988 	.word	0x39883988
    4760:	420a41c9 	.word	0x420a41c9
    4764:	530e4a8c 	.word	0x530e4a8c
    4768:	530e532e 	.word	0x530e532e
    476c:	422b4aac 	.word	0x422b4aac
    4770:	398841c9 	.word	0x398841c9
    4774:	39263967 	.word	0x39263967
    4778:	30e53105 	.word	0x30e53105
    477c:	30a530c5 	.word	0x30a530c5
    4780:	30a430a4 	.word	0x30a430a4
    4784:	30843084 	.word	0x30843084
    4788:	30843084 	.word	0x30843084
    478c:	30843084 	.word	0x30843084
    4790:	30833083 	.word	0x30833083
    4794:	30833083 	.word	0x30833083
    4798:	30633083 	.word	0x30633083
    479c:	30633063 	.word	0x30633063
    47a0:	30633063 	.word	0x30633063
    47a4:	30633063 	.word	0x30633063
    47a8:	30633063 	.word	0x30633063
    47ac:	30633063 	.word	0x30633063
    47b0:	28622862 	.word	0x28622862
    47b4:	30422842 	.word	0x30422842
    47b8:	28423042 	.word	0x28423042
    47bc:	28622842 	.word	0x28622842
    47c0:	28422862 	.word	0x28422862
    47c4:	28422842 	.word	0x28422842
    47c8:	28422842 	.word	0x28422842
    47cc:	28422822 	.word	0x28422822
    47d0:	28412842 	.word	0x28412842
    47d4:	28412821 	.word	0x28412821
    47d8:	28422841 	.word	0x28422841
    47dc:	28422842 	.word	0x28422842
    47e0:	28422842 	.word	0x28422842
    47e4:	28422842 	.word	0x28422842
    47e8:	28212842 	.word	0x28212842
    47ec:	20212821 	.word	0x20212821
    47f0:	20212021 	.word	0x20212021
    47f4:	20212021 	.word	0x20212021
    47f8:	20212021 	.word	0x20212021
    47fc:	20212021 	.word	0x20212021
    4800:	20212021 	.word	0x20212021
    4804:	20212021 	.word	0x20212021
    4808:	20212021 	.word	0x20212021
    480c:	20212021 	.word	0x20212021
    4810:	20212021 	.word	0x20212021
    4814:	20212021 	.word	0x20212021
    4818:	20212021 	.word	0x20212021
    481c:	20212021 	.word	0x20212021
    4820:	18211821 	.word	0x18211821
    4824:	18211821 	.word	0x18211821
    4828:	18011821 	.word	0x18011821
    482c:	18211821 	.word	0x18211821
    4830:	18211821 	.word	0x18211821
    4834:	18001821 	.word	0x18001821
    4838:	18011800 	.word	0x18011800
    483c:	18011801 	.word	0x18011801
    4840:	18001801 	.word	0x18001801
    4844:	18001800 	.word	0x18001800
    4848:	18001800 	.word	0x18001800
    484c:	18001800 	.word	0x18001800
    4850:	18001800 	.word	0x18001800
    4854:	18001800 	.word	0x18001800
    4858:	18001800 	.word	0x18001800
    485c:	18001800 	.word	0x18001800
    4860:	10001800 	.word	0x10001800
    4864:	10001000 	.word	0x10001000
    4868:	10001000 	.word	0x10001000
    486c:	10001000 	.word	0x10001000
    4870:	10001000 	.word	0x10001000
    4874:	10001000 	.word	0x10001000
    4878:	08841000 	.word	0x08841000
    487c:	08840884 	.word	0x08840884
    4880:	08840884 	.word	0x08840884
    4884:	08840884 	.word	0x08840884
    4888:	08840884 	.word	0x08840884
    488c:	08840884 	.word	0x08840884
    4890:	08840884 	.word	0x08840884
    4894:	08840884 	.word	0x08840884
    4898:	08840884 	.word	0x08840884
    489c:	08840884 	.word	0x08840884
    48a0:	08840884 	.word	0x08840884
    48a4:	08840884 	.word	0x08840884
    48a8:	08840884 	.word	0x08840884
    48ac:	08840884 	.word	0x08840884
    48b0:	08840884 	.word	0x08840884
    48b4:	08840884 	.word	0x08840884
    48b8:	08830884 	.word	0x08830884
    48bc:	08840883 	.word	0x08840883
    48c0:	08840884 	.word	0x08840884
    48c4:	08840884 	.word	0x08840884
    48c8:	08840884 	.word	0x08840884
    48cc:	08840884 	.word	0x08840884
    48d0:	08840884 	.word	0x08840884
    48d4:	08840884 	.word	0x08840884
    48d8:	08c50884 	.word	0x08c50884
    48dc:	08a408c4 	.word	0x08a408c4
    48e0:	008408a4 	.word	0x008408a4
    48e4:	08a40084 	.word	0x08a40084
    48e8:	08a408a4 	.word	0x08a408a4
    48ec:	08a408a4 	.word	0x08a408a4
    48f0:	08a408a4 	.word	0x08a408a4
    48f4:	08a408a4 	.word	0x08a408a4
    48f8:	08a508a4 	.word	0x08a508a4
    48fc:	08a508a4 	.word	0x08a508a4
    4900:	08c508a5 	.word	0x08c508a5
    4904:	08c508a5 	.word	0x08c508a5
    4908:	08c508c5 	.word	0x08c508c5
    490c:	08c508c5 	.word	0x08c508c5
    4910:	10c508c5 	.word	0x10c508c5
    4914:	10c510c5 	.word	0x10c510c5
    4918:	08e510e5 	.word	0x08e510e5
    491c:	10e508e5 	.word	0x10e508e5
    4920:	10e610e6 	.word	0x10e610e6
    4924:	10e610e6 	.word	0x10e610e6
    4928:	10e610e6 	.word	0x10e610e6
    492c:	09261106 	.word	0x09261106
    4930:	09460946 	.word	0x09460946
    4934:	21071106 	.word	0x21071106
    4938:	210620c6 	.word	0x210620c6
    493c:	0a8c0107 	.word	0x0a8c0107
    4940:	01474432 	.word	0x01474432
    4944:	29072107 	.word	0x29072107
    4948:	19472127 	.word	0x19472127
    494c:	19481147 	.word	0x19481147
    4950:	21481948 	.word	0x21481948
    4954:	21272147 	.word	0x21272147
    4958:	21462127 	.word	0x21462127
    495c:	21282167 	.word	0x21282167
    4960:	29292949 	.word	0x29292949
    4964:	21472928 	.word	0x21472928
    4968:	21672167 	.word	0x21672167
    496c:	11a91968 	.word	0x11a91968
    4970:	5c35120c 	.word	0x5c35120c
    4974:	21080929 	.word	0x21080929
    4978:	29663168 	.word	0x29663168
    497c:	29692967 	.word	0x29692967
    4980:	31292929 	.word	0x31292929
    4984:	3169398b 	.word	0x3169398b
    4988:	31263127 	.word	0x31263127
    498c:	218c2128 	.word	0x218c2128
    4990:	21095313 	.word	0x21095313
    4994:	31463107 	.word	0x31463107
    4998:	31272168 	.word	0x31272168
    499c:	39273106 	.word	0x39273106
    49a0:	216b2928 	.word	0x216b2928
    49a4:	20e74a6e 	.word	0x20e74a6e
    49a8:	31273127 	.word	0x31273127
    49ac:	31273107 	.word	0x31273107
    49b0:	41eb28e7 	.word	0x41eb28e7
    49b4:	312820e7 	.word	0x312820e7
    49b8:	290738e5 	.word	0x290738e5
    49bc:	310641a9 	.word	0x310641a9
    49c0:	28e73107 	.word	0x28e73107
    49c4:	30e63969 	.word	0x30e63969
    49c8:	310730e6 	.word	0x310730e6
    49cc:	30e63927 	.word	0x30e63927
    49d0:	30e63927 	.word	0x30e63927
    49d4:	39473107 	.word	0x39473107
    49d8:	39883947 	.word	0x39883947
    49dc:	398839a8 	.word	0x398839a8
    49e0:	422b41c9 	.word	0x422b41c9
    49e4:	530e4a8c 	.word	0x530e4a8c
    49e8:	532e532e 	.word	0x532e532e
    49ec:	422a4aac 	.word	0x422a4aac
    49f0:	398841c9 	.word	0x398841c9
    49f4:	39463967 	.word	0x39463967
    49f8:	30e53126 	.word	0x30e53126
    49fc:	30a430c5 	.word	0x30a430c5
    4a00:	30a430a4 	.word	0x30a430a4
    4a04:	30843084 	.word	0x30843084
    4a08:	30843084 	.word	0x30843084
    4a0c:	30843084 	.word	0x30843084
    4a10:	30833084 	.word	0x30833084
    4a14:	30833083 	.word	0x30833083
    4a18:	30633083 	.word	0x30633083
    4a1c:	30833083 	.word	0x30833083
    4a20:	30633083 	.word	0x30633083
    4a24:	30633063 	.word	0x30633063
    4a28:	30633063 	.word	0x30633063
    4a2c:	30423063 	.word	0x30423063
    4a30:	30423042 	.word	0x30423042
    4a34:	30633063 	.word	0x30633063
    4a38:	28423042 	.word	0x28423042
    4a3c:	28422842 	.word	0x28422842
    4a40:	28422842 	.word	0x28422842
    4a44:	28422842 	.word	0x28422842
    4a48:	28622842 	.word	0x28622842
    4a4c:	28412841 	.word	0x28412841
    4a50:	28422842 	.word	0x28422842
    4a54:	28422842 	.word	0x28422842
    4a58:	28422841 	.word	0x28422841
    4a5c:	28412842 	.word	0x28412842
    4a60:	28412841 	.word	0x28412841
    4a64:	28222822 	.word	0x28222822
    4a68:	28212822 	.word	0x28212822
    4a6c:	28212821 	.word	0x28212821
    4a70:	28212821 	.word	0x28212821
    4a74:	28212821 	.word	0x28212821
    4a78:	20212821 	.word	0x20212821
    4a7c:	20212021 	.word	0x20212021
    4a80:	20212021 	.word	0x20212021
    4a84:	20212021 	.word	0x20212021
    4a88:	20212021 	.word	0x20212021
    4a8c:	20212021 	.word	0x20212021
    4a90:	20212021 	.word	0x20212021
    4a94:	20212021 	.word	0x20212021
    4a98:	20212021 	.word	0x20212021
    4a9c:	20212021 	.word	0x20212021
    4aa0:	18212021 	.word	0x18212021
    4aa4:	18211821 	.word	0x18211821
    4aa8:	18011821 	.word	0x18011821
    4aac:	18011801 	.word	0x18011801
    4ab0:	18211801 	.word	0x18211801
    4ab4:	18001821 	.word	0x18001821
    4ab8:	18011800 	.word	0x18011800
    4abc:	18011801 	.word	0x18011801
    4ac0:	18001801 	.word	0x18001801
    4ac4:	18001800 	.word	0x18001800
    4ac8:	18011800 	.word	0x18011800
    4acc:	18001821 	.word	0x18001821
    4ad0:	18001800 	.word	0x18001800
    4ad4:	18001800 	.word	0x18001800
    4ad8:	18001800 	.word	0x18001800
    4adc:	18001800 	.word	0x18001800
    4ae0:	10001800 	.word	0x10001800
    4ae4:	18001000 	.word	0x18001000
    4ae8:	10001000 	.word	0x10001000
    4aec:	10001000 	.word	0x10001000
    4af0:	10001000 	.word	0x10001000
    4af4:	10001000 	.word	0x10001000
    4af8:	08841000 	.word	0x08841000
    4afc:	08840884 	.word	0x08840884
    4b00:	08840884 	.word	0x08840884
    4b04:	08840884 	.word	0x08840884
    4b08:	08840884 	.word	0x08840884
    4b0c:	08840884 	.word	0x08840884
    4b10:	08840884 	.word	0x08840884
    4b14:	08840884 	.word	0x08840884
    4b18:	08840884 	.word	0x08840884
    4b1c:	08840884 	.word	0x08840884
    4b20:	08840884 	.word	0x08840884
    4b24:	08840884 	.word	0x08840884
    4b28:	08840884 	.word	0x08840884
    4b2c:	08840884 	.word	0x08840884
    4b30:	08840884 	.word	0x08840884
    4b34:	08840884 	.word	0x08840884
    4b38:	08830884 	.word	0x08830884
    4b3c:	08840883 	.word	0x08840883
    4b40:	08840884 	.word	0x08840884
    4b44:	08840884 	.word	0x08840884
    4b48:	08840884 	.word	0x08840884
    4b4c:	08840884 	.word	0x08840884
    4b50:	08840884 	.word	0x08840884
    4b54:	08840884 	.word	0x08840884
    4b58:	00840884 	.word	0x00840884
    4b5c:	08c508a4 	.word	0x08c508a4
    4b60:	08a408c5 	.word	0x08a408c5
    4b64:	008408a4 	.word	0x008408a4
    4b68:	08a408a4 	.word	0x08a408a4
    4b6c:	08a408a4 	.word	0x08a408a4
    4b70:	08a408a4 	.word	0x08a408a4
    4b74:	08a408a4 	.word	0x08a408a4
    4b78:	08a510a5 	.word	0x08a510a5
    4b7c:	08a508a5 	.word	0x08a508a5
    4b80:	08c508a5 	.word	0x08c508a5
    4b84:	08c508c5 	.word	0x08c508c5
    4b88:	08c508c5 	.word	0x08c508c5
    4b8c:	08c508c5 	.word	0x08c508c5
    4b90:	10c508c5 	.word	0x10c508c5
    4b94:	10e610c5 	.word	0x10e610c5
    4b98:	08e510e6 	.word	0x08e510e6
    4b9c:	10e608e6 	.word	0x10e608e6
    4ba0:	110610e6 	.word	0x110610e6
    4ba4:	11061106 	.word	0x11061106
    4ba8:	18e61106 	.word	0x18e61106
    4bac:	110618e6 	.word	0x110618e6
    4bb0:	09261126 	.word	0x09261126
    4bb4:	19071126 	.word	0x19071126
    4bb8:	190620e7 	.word	0x190620e7
    4bbc:	09471907 	.word	0x09471907
    4bc0:	4433126c 	.word	0x4433126c
    4bc4:	19060168 	.word	0x19060168
    4bc8:	19482907 	.word	0x19482907
    4bcc:	19481168 	.word	0x19481168
    4bd0:	21482127 	.word	0x21482127
    4bd4:	19271968 	.word	0x19271968
    4bd8:	29472927 	.word	0x29472927
    4bdc:	21672147 	.word	0x21672147
    4be0:	29292148 	.word	0x29292148
    4be4:	21682929 	.word	0x21682929
    4be8:	21682168 	.word	0x21682168
    4bec:	29672927 	.word	0x29672927
    4bf0:	2b510948 	.word	0x2b510948
    4bf4:	196a3373 	.word	0x196a3373
    4bf8:	21673906 	.word	0x21673906
    4bfc:	29282989 	.word	0x29282989
    4c00:	31283148 	.word	0x31283148
    4c04:	39893149 	.word	0x39893149
    4c08:	29483148 	.word	0x29483148
    4c0c:	21093169 	.word	0x21093169
    4c10:	31cc5b11 	.word	0x31cc5b11
    4c14:	29472149 	.word	0x29472149
    4c18:	31282967 	.word	0x31282967
    4c1c:	39273927 	.word	0x39273927
    4c20:	21293148 	.word	0x21293148
    4c24:	29494a6e 	.word	0x29494a6e
    4c28:	31282928 	.word	0x31282928
    4c2c:	39273127 	.word	0x39273127
    4c30:	41ec30e6 	.word	0x41ec30e6
    4c34:	31072929 	.word	0x31072929
    4c38:	31073906 	.word	0x31073906
    4c3c:	39693128 	.word	0x39693128
    4c40:	30e63107 	.word	0x30e63107
    4c44:	39483927 	.word	0x39483927
    4c48:	310730e7 	.word	0x310730e7
    4c4c:	30e64147 	.word	0x30e64147
    4c50:	39483107 	.word	0x39483107
    4c54:	414830e6 	.word	0x414830e6
    4c58:	39883927 	.word	0x39883927
    4c5c:	41c93988 	.word	0x41c93988
    4c60:	422b41e9 	.word	0x422b41e9
    4c64:	530e4a6c 	.word	0x530e4a6c
    4c68:	532e534f 	.word	0x532e534f
    4c6c:	422a4aac 	.word	0x422a4aac
    4c70:	398741e9 	.word	0x398741e9
    4c74:	39463967 	.word	0x39463967
    4c78:	38e53926 	.word	0x38e53926
    4c7c:	30c530c5 	.word	0x30c530c5
    4c80:	308430a5 	.word	0x308430a5
    4c84:	308430a4 	.word	0x308430a4
    4c88:	30843084 	.word	0x30843084
    4c8c:	30843084 	.word	0x30843084
    4c90:	30843084 	.word	0x30843084
    4c94:	30833083 	.word	0x30833083
    4c98:	30633084 	.word	0x30633084
    4c9c:	30633063 	.word	0x30633063
    4ca0:	30633063 	.word	0x30633063
    4ca4:	30633063 	.word	0x30633063
    4ca8:	30633063 	.word	0x30633063
    4cac:	30633063 	.word	0x30633063
    4cb0:	30633063 	.word	0x30633063
    4cb4:	30633063 	.word	0x30633063
    4cb8:	30423042 	.word	0x30423042
    4cbc:	30423042 	.word	0x30423042
    4cc0:	30423042 	.word	0x30423042
    4cc4:	30423042 	.word	0x30423042
    4cc8:	28423042 	.word	0x28423042
    4ccc:	28422842 	.word	0x28422842
    4cd0:	28422842 	.word	0x28422842
    4cd4:	28422842 	.word	0x28422842
    4cd8:	28422842 	.word	0x28422842
    4cdc:	28422842 	.word	0x28422842
    4ce0:	28412842 	.word	0x28412842
    4ce4:	28422841 	.word	0x28422841
    4ce8:	28222842 	.word	0x28222842
    4cec:	28212821 	.word	0x28212821
    4cf0:	28212821 	.word	0x28212821
    4cf4:	28212021 	.word	0x28212021
    4cf8:	20212821 	.word	0x20212821
    4cfc:	20212021 	.word	0x20212021
    4d00:	20212021 	.word	0x20212021
    4d04:	20212021 	.word	0x20212021
    4d08:	20212821 	.word	0x20212821
    4d0c:	20212021 	.word	0x20212021
    4d10:	20212021 	.word	0x20212021
    4d14:	20212021 	.word	0x20212021
    4d18:	20212021 	.word	0x20212021
    4d1c:	20212021 	.word	0x20212021
    4d20:	20212021 	.word	0x20212021
    4d24:	20212021 	.word	0x20212021
    4d28:	20212021 	.word	0x20212021
    4d2c:	18212021 	.word	0x18212021
    4d30:	18011821 	.word	0x18011821
    4d34:	18011801 	.word	0x18011801
    4d38:	18001801 	.word	0x18001801
    4d3c:	18001800 	.word	0x18001800
    4d40:	18001800 	.word	0x18001800
    4d44:	18001800 	.word	0x18001800
    4d48:	18001800 	.word	0x18001800
    4d4c:	18001800 	.word	0x18001800
    4d50:	18001800 	.word	0x18001800
    4d54:	18001800 	.word	0x18001800
    4d58:	18001820 	.word	0x18001820
    4d5c:	18001800 	.word	0x18001800
    4d60:	18001800 	.word	0x18001800
    4d64:	18001800 	.word	0x18001800
    4d68:	10001800 	.word	0x10001800
    4d6c:	10001000 	.word	0x10001000
    4d70:	10001000 	.word	0x10001000
    4d74:	10001000 	.word	0x10001000
    4d78:	08841000 	.word	0x08841000
    4d7c:	08840884 	.word	0x08840884
    4d80:	08840884 	.word	0x08840884
    4d84:	08840884 	.word	0x08840884
    4d88:	08840884 	.word	0x08840884
    4d8c:	08840884 	.word	0x08840884
    4d90:	08840884 	.word	0x08840884
    4d94:	08840884 	.word	0x08840884
    4d98:	08840884 	.word	0x08840884
    4d9c:	08840884 	.word	0x08840884
    4da0:	08840884 	.word	0x08840884
    4da4:	08840884 	.word	0x08840884
    4da8:	08840884 	.word	0x08840884
    4dac:	08840884 	.word	0x08840884
    4db0:	08840884 	.word	0x08840884
    4db4:	08840884 	.word	0x08840884
    4db8:	08830884 	.word	0x08830884
    4dbc:	08840883 	.word	0x08840883
    4dc0:	08840884 	.word	0x08840884
    4dc4:	08840884 	.word	0x08840884
    4dc8:	08840884 	.word	0x08840884
    4dcc:	08840884 	.word	0x08840884
    4dd0:	08840884 	.word	0x08840884
    4dd4:	08840884 	.word	0x08840884
    4dd8:	08a40884 	.word	0x08a40884
    4ddc:	08a408a4 	.word	0x08a408a4
    4de0:	08c508a4 	.word	0x08c508a4
    4de4:	08a408c5 	.word	0x08a408c5
    4de8:	08a408a4 	.word	0x08a408a4
    4dec:	08a408a4 	.word	0x08a408a4
    4df0:	08840084 	.word	0x08840084
    4df4:	08c508c5 	.word	0x08c508c5
    4df8:	08a50884 	.word	0x08a50884
    4dfc:	08a508a5 	.word	0x08a508a5
    4e00:	08c508c5 	.word	0x08c508c5
    4e04:	08c508c5 	.word	0x08c508c5
    4e08:	08c508c5 	.word	0x08c508c5
    4e0c:	08c508c5 	.word	0x08c508c5
    4e10:	10c508c5 	.word	0x10c508c5
    4e14:	10e608e5 	.word	0x10e608e5
    4e18:	090610e6 	.word	0x090610e6
    4e1c:	10e610e6 	.word	0x10e610e6
    4e20:	10e610e6 	.word	0x10e610e6
    4e24:	09060906 	.word	0x09060906
    4e28:	18e61106 	.word	0x18e61106
    4e2c:	18e620e6 	.word	0x18e620e6
    4e30:	11261906 	.word	0x11261906
    4e34:	11271126 	.word	0x11271126
    4e38:	09471927 	.word	0x09471927
    4e3c:	20e72127 	.word	0x20e72127
    4e40:	0a4c0928 	.word	0x0a4c0928
    4e44:	09a84c94 	.word	0x09a84c94
    4e48:	19281127 	.word	0x19281127
    4e4c:	21272128 	.word	0x21272128
    4e50:	21682968 	.word	0x21682968
    4e54:	19681928 	.word	0x19681928
    4e58:	29482948 	.word	0x29482948
    4e5c:	21872167 	.word	0x21872167
    4e60:	29492168 	.word	0x29492168
    4e64:	21692949 	.word	0x21692949
    4e68:	29482169 	.word	0x29482169
    4e6c:	39073927 	.word	0x39073927
    4e70:	016929a9 	.word	0x016929a9
    4e74:	222c5475 	.word	0x222c5475
    4e78:	29692968 	.word	0x29692968
    4e7c:	29692949 	.word	0x29692949
    4e80:	31683169 	.word	0x31683169
    4e84:	39a93127 	.word	0x39a93127
    4e88:	298a31aa 	.word	0x298a31aa
    4e8c:	29482949 	.word	0x29482949
    4e90:	5bb31907 	.word	0x5bb31907
    4e94:	2969116b 	.word	0x2969116b
    4e98:	29283926 	.word	0x29283926
    4e9c:	39273948 	.word	0x39273948
    4ea0:	31483107 	.word	0x31483107
    4ea4:	4a6e298a 	.word	0x4a6e298a
    4ea8:	31282929 	.word	0x31282929
    4eac:	39273927 	.word	0x39273927
    4eb0:	31493107 	.word	0x31493107
    4eb4:	310841cc 	.word	0x310841cc
    4eb8:	390630e6 	.word	0x390630e6
    4ebc:	39aa3107 	.word	0x39aa3107
    4ec0:	390628e7 	.word	0x390628e7
    4ec4:	41693906 	.word	0x41693906
    4ec8:	30e73108 	.word	0x30e73108
    4ecc:	39073927 	.word	0x39073927
    4ed0:	394830e7 	.word	0x394830e7
    4ed4:	39483106 	.word	0x39483106
    4ed8:	39883927 	.word	0x39883927
    4edc:	41c93988 	.word	0x41c93988
    4ee0:	4a2b41ea 	.word	0x4a2b41ea
    4ee4:	530e4a8c 	.word	0x530e4a8c
    4ee8:	532e5b4f 	.word	0x532e5b4f
    4eec:	422a4aac 	.word	0x422a4aac
    4ef0:	418841e9 	.word	0x418841e9
    4ef4:	39463967 	.word	0x39463967
    4ef8:	38e53105 	.word	0x38e53105
    4efc:	38c530c5 	.word	0x38c530c5
    4f00:	30a430c5 	.word	0x30a430c5
    4f04:	308430a4 	.word	0x308430a4
    4f08:	30843084 	.word	0x30843084
    4f0c:	30843084 	.word	0x30843084
    4f10:	30843084 	.word	0x30843084
    4f14:	30633063 	.word	0x30633063
    4f18:	30833084 	.word	0x30833084
    4f1c:	30633083 	.word	0x30633083
    4f20:	30633063 	.word	0x30633063
    4f24:	30633063 	.word	0x30633063
    4f28:	30633063 	.word	0x30633063
    4f2c:	30633063 	.word	0x30633063
    4f30:	30633063 	.word	0x30633063
    4f34:	30433063 	.word	0x30433063
    4f38:	30423043 	.word	0x30423043
    4f3c:	30423042 	.word	0x30423042
    4f40:	30423042 	.word	0x30423042
    4f44:	30423042 	.word	0x30423042
    4f48:	28423042 	.word	0x28423042
    4f4c:	28422842 	.word	0x28422842
    4f50:	28422842 	.word	0x28422842
    4f54:	28422842 	.word	0x28422842
    4f58:	28422842 	.word	0x28422842
    4f5c:	28422842 	.word	0x28422842
    4f60:	28412842 	.word	0x28412842
    4f64:	28422841 	.word	0x28422841
    4f68:	28222842 	.word	0x28222842
    4f6c:	28212821 	.word	0x28212821
    4f70:	28212821 	.word	0x28212821
    4f74:	28212821 	.word	0x28212821
    4f78:	28212821 	.word	0x28212821
    4f7c:	28212821 	.word	0x28212821
    4f80:	20212821 	.word	0x20212821
    4f84:	20212021 	.word	0x20212021
    4f88:	20212021 	.word	0x20212021
    4f8c:	20212021 	.word	0x20212021
    4f90:	20212021 	.word	0x20212021
    4f94:	20212021 	.word	0x20212021
    4f98:	20212021 	.word	0x20212021
    4f9c:	20212021 	.word	0x20212021
    4fa0:	20212021 	.word	0x20212021
    4fa4:	20212021 	.word	0x20212021
    4fa8:	20212021 	.word	0x20212021
    4fac:	20212021 	.word	0x20212021
    4fb0:	18211821 	.word	0x18211821
    4fb4:	18211821 	.word	0x18211821
    4fb8:	18001821 	.word	0x18001821
    4fbc:	18001800 	.word	0x18001800
    4fc0:	18001800 	.word	0x18001800
    4fc4:	18001800 	.word	0x18001800
    4fc8:	18001800 	.word	0x18001800
    4fcc:	18001800 	.word	0x18001800
    4fd0:	18001800 	.word	0x18001800
    4fd4:	18001800 	.word	0x18001800
    4fd8:	18001800 	.word	0x18001800
    4fdc:	18001800 	.word	0x18001800
    4fe0:	18001800 	.word	0x18001800
    4fe4:	18001800 	.word	0x18001800
    4fe8:	18001800 	.word	0x18001800
    4fec:	18001800 	.word	0x18001800
    4ff0:	10001000 	.word	0x10001000
    4ff4:	10001000 	.word	0x10001000
    4ff8:	08841000 	.word	0x08841000
    4ffc:	08840884 	.word	0x08840884
    5000:	08840884 	.word	0x08840884
    5004:	08840884 	.word	0x08840884
    5008:	08840884 	.word	0x08840884
    500c:	08840884 	.word	0x08840884
    5010:	08840884 	.word	0x08840884
    5014:	08840884 	.word	0x08840884
    5018:	08840884 	.word	0x08840884
    501c:	08840884 	.word	0x08840884
    5020:	08840884 	.word	0x08840884
    5024:	08840884 	.word	0x08840884
    5028:	08840884 	.word	0x08840884
    502c:	08840884 	.word	0x08840884
    5030:	08840884 	.word	0x08840884
    5034:	08840884 	.word	0x08840884
    5038:	08830884 	.word	0x08830884
    503c:	08840883 	.word	0x08840883
    5040:	08840884 	.word	0x08840884
    5044:	08840884 	.word	0x08840884
    5048:	08840884 	.word	0x08840884
    504c:	08840884 	.word	0x08840884
    5050:	08840884 	.word	0x08840884
    5054:	08840884 	.word	0x08840884
    5058:	08840884 	.word	0x08840884
    505c:	00840084 	.word	0x00840084
    5060:	08c408a4 	.word	0x08c408a4
    5064:	08c508c5 	.word	0x08c508c5
    5068:	008408c5 	.word	0x008408c5
    506c:	08a508a4 	.word	0x08a508a4
    5070:	08a408a5 	.word	0x08a408a5
    5074:	08a40884 	.word	0x08a40884
    5078:	08a508a5 	.word	0x08a508a5
    507c:	08a508a5 	.word	0x08a508a5
    5080:	08c508c5 	.word	0x08c508c5
    5084:	08c508c5 	.word	0x08c508c5
    5088:	08c508c5 	.word	0x08c508c5
    508c:	08c508c5 	.word	0x08c508c5
    5090:	08e508c5 	.word	0x08e508c5
    5094:	10e610e6 	.word	0x10e610e6
    5098:	10e610e6 	.word	0x10e610e6
    509c:	10e610e6 	.word	0x10e610e6
    50a0:	090610e6 	.word	0x090610e6
    50a4:	11260906 	.word	0x11260906
    50a8:	19061106 	.word	0x19061106
    50ac:	18e618e6 	.word	0x18e618e6
    50b0:	19061906 	.word	0x19061906
    50b4:	11271127 	.word	0x11271127
    50b8:	09671127 	.word	0x09671127
    50bc:	21071127 	.word	0x21071127
    50c0:	11272907 	.word	0x11272907
    50c4:	4494124b 	.word	0x4494124b
    50c8:	1148020a 	.word	0x1148020a
    50cc:	29072927 	.word	0x29072927
    50d0:	19682148 	.word	0x19682148
    50d4:	21482168 	.word	0x21482168
    50d8:	21681968 	.word	0x21681968
    50dc:	21682168 	.word	0x21682168
    50e0:	21682168 	.word	0x21682168
    50e4:	29692168 	.word	0x29692168
    50e8:	29282949 	.word	0x29282949
    50ec:	31283969 	.word	0x31283969
    50f0:	29883128 	.word	0x29883128
    50f4:	74f71167 	.word	0x74f71167
    50f8:	316901ec 	.word	0x316901ec
    50fc:	318a2949 	.word	0x318a2949
    5100:	31682949 	.word	0x31682949
    5104:	29473188 	.word	0x29473188
    5108:	216a2149 	.word	0x216a2149
    510c:	39883148 	.word	0x39883148
    5110:	2a6e2968 	.word	0x2a6e2968
    5114:	21283b11 	.word	0x21283b11
    5118:	31684126 	.word	0x31684126
    511c:	31283148 	.word	0x31283148
    5120:	31473948 	.word	0x31473948
    5124:	4a8f2128 	.word	0x4a8f2128
    5128:	3149296b 	.word	0x3149296b
    512c:	39273107 	.word	0x39273107
    5130:	29083127 	.word	0x29083127
    5134:	31084a0c 	.word	0x31084a0c
    5138:	39063127 	.word	0x39063127
    513c:	39aa2907 	.word	0x39aa2907
    5140:	39063128 	.word	0x39063128
    5144:	394830e6 	.word	0x394830e6
    5148:	30e73128 	.word	0x30e73128
    514c:	41273906 	.word	0x41273906
    5150:	394830e7 	.word	0x394830e7
    5154:	39473927 	.word	0x39473927
    5158:	39884148 	.word	0x39884148
    515c:	41c93988 	.word	0x41c93988
    5160:	4a2b41ca 	.word	0x4a2b41ca
    5164:	530e4a8c 	.word	0x530e4a8c
    5168:	532e5b4e 	.word	0x532e5b4e
    516c:	424a4acc 	.word	0x424a4acc
    5170:	418841e9 	.word	0x418841e9
    5174:	39464167 	.word	0x39464167
    5178:	38e53106 	.word	0x38e53106
    517c:	38c530c5 	.word	0x38c530c5
    5180:	30a438c5 	.word	0x30a438c5
    5184:	308430a4 	.word	0x308430a4
    5188:	30843084 	.word	0x30843084
    518c:	30843084 	.word	0x30843084
    5190:	30843084 	.word	0x30843084
    5194:	30843084 	.word	0x30843084
    5198:	30833084 	.word	0x30833084
    519c:	30633083 	.word	0x30633083
    51a0:	30833063 	.word	0x30833063
    51a4:	30633083 	.word	0x30633083
    51a8:	30633063 	.word	0x30633063
    51ac:	30633063 	.word	0x30633063
    51b0:	30633063 	.word	0x30633063
    51b4:	30433063 	.word	0x30433063
    51b8:	30433043 	.word	0x30433043
    51bc:	30423042 	.word	0x30423042
    51c0:	30423042 	.word	0x30423042
    51c4:	30423042 	.word	0x30423042
    51c8:	30423042 	.word	0x30423042
    51cc:	30423042 	.word	0x30423042
    51d0:	28423042 	.word	0x28423042
    51d4:	28422842 	.word	0x28422842
    51d8:	28422842 	.word	0x28422842
    51dc:	28422842 	.word	0x28422842
    51e0:	28422842 	.word	0x28422842
    51e4:	28422842 	.word	0x28422842
    51e8:	28212842 	.word	0x28212842
    51ec:	28212822 	.word	0x28212822
    51f0:	28212822 	.word	0x28212822
    51f4:	28212821 	.word	0x28212821
    51f8:	28412821 	.word	0x28412821
    51fc:	28212821 	.word	0x28212821
    5200:	20212821 	.word	0x20212821
    5204:	20212021 	.word	0x20212021
    5208:	28212021 	.word	0x28212021
    520c:	20212021 	.word	0x20212021
    5210:	20212021 	.word	0x20212021
    5214:	20212021 	.word	0x20212021
    5218:	20212021 	.word	0x20212021
    521c:	20212021 	.word	0x20212021
    5220:	20212021 	.word	0x20212021
    5224:	20212021 	.word	0x20212021
    5228:	20212021 	.word	0x20212021
    522c:	20212021 	.word	0x20212021
    5230:	20212021 	.word	0x20212021
    5234:	20212021 	.word	0x20212021
    5238:	18012021 	.word	0x18012021
    523c:	18011801 	.word	0x18011801
    5240:	18001801 	.word	0x18001801
    5244:	18001800 	.word	0x18001800
    5248:	18211800 	.word	0x18211800
    524c:	18001800 	.word	0x18001800
    5250:	18001800 	.word	0x18001800
    5254:	18001800 	.word	0x18001800
    5258:	18011800 	.word	0x18011800
    525c:	18001801 	.word	0x18001801
    5260:	18001800 	.word	0x18001800
    5264:	18001800 	.word	0x18001800
    5268:	18211800 	.word	0x18211800
    526c:	18001800 	.word	0x18001800
    5270:	10001800 	.word	0x10001800
    5274:	10001000 	.word	0x10001000
    5278:	08841000 	.word	0x08841000
    527c:	08840884 	.word	0x08840884
    5280:	08840884 	.word	0x08840884
    5284:	08840884 	.word	0x08840884
    5288:	08840884 	.word	0x08840884
    528c:	08840884 	.word	0x08840884
    5290:	08840884 	.word	0x08840884
    5294:	08840884 	.word	0x08840884
    5298:	08840884 	.word	0x08840884
    529c:	08840884 	.word	0x08840884
    52a0:	08840884 	.word	0x08840884
    52a4:	08840884 	.word	0x08840884
    52a8:	08840884 	.word	0x08840884
    52ac:	08840884 	.word	0x08840884
    52b0:	08840884 	.word	0x08840884
    52b4:	08840884 	.word	0x08840884
    52b8:	08830884 	.word	0x08830884
    52bc:	08840883 	.word	0x08840883
    52c0:	08840884 	.word	0x08840884
    52c4:	08840884 	.word	0x08840884
    52c8:	08840884 	.word	0x08840884
    52cc:	08840884 	.word	0x08840884
    52d0:	08840884 	.word	0x08840884
    52d4:	08840884 	.word	0x08840884
    52d8:	08840884 	.word	0x08840884
    52dc:	08840884 	.word	0x08840884
    52e0:	08840884 	.word	0x08840884
    52e4:	08c508a4 	.word	0x08c508a4
    52e8:	08e510e5 	.word	0x08e510e5
    52ec:	00a408a5 	.word	0x00a408a5
    52f0:	08c500a4 	.word	0x08c500a4
    52f4:	08a508a5 	.word	0x08a508a5
    52f8:	08a508a5 	.word	0x08a508a5
    52fc:	08a508a5 	.word	0x08a508a5
    5300:	08c508c5 	.word	0x08c508c5
    5304:	08c508c5 	.word	0x08c508c5
    5308:	08c508c5 	.word	0x08c508c5
    530c:	08c508c5 	.word	0x08c508c5
    5310:	08e508e5 	.word	0x08e508e5
    5314:	10e608e5 	.word	0x10e608e5
    5318:	10e610e6 	.word	0x10e610e6
    531c:	10e610e6 	.word	0x10e610e6
    5320:	09061106 	.word	0x09061106
    5324:	11060906 	.word	0x11060906
    5328:	11061106 	.word	0x11061106
    532c:	11061106 	.word	0x11061106
    5330:	19271907 	.word	0x19271907
    5334:	19271927 	.word	0x19271927
    5338:	11271927 	.word	0x11271927
    533c:	11481168 	.word	0x11481168
    5340:	28e72907 	.word	0x28e72907
    5344:	026c0928 	.word	0x026c0928
    5348:	09c944d5 	.word	0x09c944d5
    534c:	29481906 	.word	0x29481906
    5350:	19472148 	.word	0x19472148
    5354:	21891947 	.word	0x21891947
    5358:	21881969 	.word	0x21881969
    535c:	29692168 	.word	0x29692168
    5360:	21882968 	.word	0x21882968
    5364:	29692188 	.word	0x29692188
    5368:	29693149 	.word	0x29693149
    536c:	2969296a 	.word	0x2969296a
    5370:	41473948 	.word	0x41473948
    5374:	1a0b2946 	.word	0x1a0b2946
    5378:	112854f9 	.word	0x112854f9
    537c:	2969298a 	.word	0x2969298a
    5380:	31483169 	.word	0x31483169
    5384:	29893168 	.word	0x29893168
    5388:	318931aa 	.word	0x318931aa
    538c:	31483148 	.word	0x31483148
    5390:	11292969 	.word	0x11292969
    5394:	298a5bb3 	.word	0x298a5bb3
    5398:	29483968 	.word	0x29483968
    539c:	31483169 	.word	0x31483169
    53a0:	39474148 	.word	0x39474148
    53a4:	216a3168 	.word	0x216a3168
    53a8:	290852b0 	.word	0x290852b0
    53ac:	31273948 	.word	0x31273948
    53b0:	31283128 	.word	0x31283128
    53b4:	41aa3969 	.word	0x41aa3969
    53b8:	39063128 	.word	0x39063128
    53bc:	31293128 	.word	0x31293128
    53c0:	30e641aa 	.word	0x30e641aa
    53c4:	310738e6 	.word	0x310738e6
    53c8:	30e73969 	.word	0x30e73969
    53cc:	414838e6 	.word	0x414838e6
    53d0:	39283107 	.word	0x39283107
    53d4:	39273948 	.word	0x39273948
    53d8:	39894168 	.word	0x39894168
    53dc:	41aa41a9 	.word	0x41aa41a9
    53e0:	4a2b41ea 	.word	0x4a2b41ea
    53e4:	530e4a8c 	.word	0x530e4a8c
    53e8:	532e5b4e 	.word	0x532e5b4e
    53ec:	4a4b4acc 	.word	0x4a4b4acc
    53f0:	418841e9 	.word	0x418841e9
    53f4:	39474168 	.word	0x39474168
    53f8:	38e63947 	.word	0x38e63947
    53fc:	38e538c5 	.word	0x38e538c5
    5400:	30a438c5 	.word	0x30a438c5
    5404:	308430a4 	.word	0x308430a4
    5408:	38843084 	.word	0x38843084
    540c:	38843884 	.word	0x38843884
    5410:	30843884 	.word	0x30843884
    5414:	30843084 	.word	0x30843084
    5418:	30833084 	.word	0x30833084
    541c:	30833083 	.word	0x30833083
    5420:	30833083 	.word	0x30833083
    5424:	30633083 	.word	0x30633083
    5428:	30633063 	.word	0x30633063
    542c:	30633063 	.word	0x30633063
    5430:	30633063 	.word	0x30633063
    5434:	30633063 	.word	0x30633063
    5438:	30433043 	.word	0x30433043
    543c:	30433043 	.word	0x30433043
    5440:	30423042 	.word	0x30423042
    5444:	30423042 	.word	0x30423042
    5448:	30423042 	.word	0x30423042
    544c:	30423042 	.word	0x30423042
    5450:	30423042 	.word	0x30423042
    5454:	28423042 	.word	0x28423042
    5458:	28422842 	.word	0x28422842
    545c:	28422842 	.word	0x28422842
    5460:	28422842 	.word	0x28422842
    5464:	28422842 	.word	0x28422842
    5468:	28212842 	.word	0x28212842
    546c:	28222821 	.word	0x28222821
    5470:	28222822 	.word	0x28222822
    5474:	28212821 	.word	0x28212821
    5478:	28212821 	.word	0x28212821
    547c:	28212821 	.word	0x28212821
    5480:	28212821 	.word	0x28212821
    5484:	28212821 	.word	0x28212821
    5488:	28212821 	.word	0x28212821
    548c:	28212821 	.word	0x28212821
    5490:	20212021 	.word	0x20212021
    5494:	20212021 	.word	0x20212021
    5498:	20212021 	.word	0x20212021
    549c:	20212021 	.word	0x20212021
    54a0:	20212021 	.word	0x20212021
    54a4:	20212021 	.word	0x20212021
    54a8:	20212021 	.word	0x20212021
    54ac:	20212021 	.word	0x20212021
    54b0:	20212021 	.word	0x20212021
    54b4:	20212021 	.word	0x20212021
    54b8:	18012021 	.word	0x18012021
    54bc:	18011801 	.word	0x18011801
    54c0:	18011801 	.word	0x18011801
    54c4:	18011801 	.word	0x18011801
    54c8:	18011801 	.word	0x18011801
    54cc:	18001800 	.word	0x18001800
    54d0:	18001800 	.word	0x18001800
    54d4:	18001800 	.word	0x18001800
    54d8:	18001800 	.word	0x18001800
    54dc:	18001800 	.word	0x18001800
    54e0:	18001800 	.word	0x18001800
    54e4:	18001800 	.word	0x18001800
    54e8:	18001800 	.word	0x18001800
    54ec:	18001800 	.word	0x18001800
    54f0:	10001800 	.word	0x10001800
    54f4:	10001000 	.word	0x10001000
    54f8:	08841000 	.word	0x08841000
    54fc:	08840884 	.word	0x08840884
    5500:	08840884 	.word	0x08840884
    5504:	08840884 	.word	0x08840884
    5508:	08840884 	.word	0x08840884
    550c:	08840884 	.word	0x08840884
    5510:	08840884 	.word	0x08840884
    5514:	08840884 	.word	0x08840884
    5518:	08840884 	.word	0x08840884
    551c:	08840884 	.word	0x08840884
    5520:	08840884 	.word	0x08840884
    5524:	08840884 	.word	0x08840884
    5528:	08840884 	.word	0x08840884
    552c:	08840884 	.word	0x08840884
    5530:	08840884 	.word	0x08840884
    5534:	08840884 	.word	0x08840884
    5538:	08830884 	.word	0x08830884
    553c:	08840883 	.word	0x08840883
    5540:	08840884 	.word	0x08840884
    5544:	08840884 	.word	0x08840884
    5548:	08840884 	.word	0x08840884
    554c:	08840884 	.word	0x08840884
    5550:	08840884 	.word	0x08840884
    5554:	08840884 	.word	0x08840884
    5558:	08840884 	.word	0x08840884
    555c:	08840884 	.word	0x08840884
    5560:	00840884 	.word	0x00840884
    5564:	08a40084 	.word	0x08a40084
    5568:	10e508c5 	.word	0x10e508c5
    556c:	08e510e6 	.word	0x08e510e6
    5570:	008400a4 	.word	0x008400a4
    5574:	08c508c5 	.word	0x08c508c5
    5578:	08a508a5 	.word	0x08a508a5
    557c:	08a508a5 	.word	0x08a508a5
    5580:	08c508c5 	.word	0x08c508c5
    5584:	08c508c5 	.word	0x08c508c5
    5588:	08c508c5 	.word	0x08c508c5
    558c:	08c508c5 	.word	0x08c508c5
    5590:	08e508e5 	.word	0x08e508e5
    5594:	10e608e5 	.word	0x10e608e5
    5598:	10c610e6 	.word	0x10c610e6
    559c:	110610e6 	.word	0x110610e6
    55a0:	11061106 	.word	0x11061106
    55a4:	11061106 	.word	0x11061106
    55a8:	11261106 	.word	0x11261106
    55ac:	11271127 	.word	0x11271127
    55b0:	11271127 	.word	0x11271127
    55b4:	19271927 	.word	0x19271927
    55b8:	11271927 	.word	0x11271927
    55bc:	11481147 	.word	0x11481147
    55c0:	21072148 	.word	0x21072148
    55c4:	09282928 	.word	0x09282928
    55c8:	54d50a0a 	.word	0x54d50a0a
    55cc:	1948120a 	.word	0x1948120a
    55d0:	21672148 	.word	0x21672148
    55d4:	194821a9 	.word	0x194821a9
    55d8:	2169296a 	.word	0x2169296a
    55dc:	29682969 	.word	0x29682969
    55e0:	21882968 	.word	0x21882968
    55e4:	29692188 	.word	0x29692188
    55e8:	29aa2969 	.word	0x29aa2969
    55ec:	29891948 	.word	0x29891948
    55f0:	39473148 	.word	0x39473148
    55f4:	198a3188 	.word	0x198a3188
    55f8:	543432d0 	.word	0x543432d0
    55fc:	29680948 	.word	0x29680948
    5600:	398a3928 	.word	0x398a3928
    5604:	298a2969 	.word	0x298a2969
    5608:	31882968 	.word	0x31882968
    560c:	31493168 	.word	0x31493168
    5610:	31283949 	.word	0x31283949
    5614:	63b32969 	.word	0x63b32969
    5618:	31890949 	.word	0x31890949
    561c:	31693169 	.word	0x31693169
    5620:	39263927 	.word	0x39263927
    5624:	21093968 	.word	0x21093968
    5628:	314a528f 	.word	0x314a528f
    562c:	31483969 	.word	0x31483969
    5630:	39483128 	.word	0x39483128
    5634:	522c30e7 	.word	0x522c30e7
    5638:	39272928 	.word	0x39272928
    563c:	31083128 	.word	0x31083128
    5640:	390749ca 	.word	0x390749ca
    5644:	31073907 	.word	0x31073907
    5648:	31074189 	.word	0x31074189
    564c:	414838e7 	.word	0x414838e7
    5650:	31073928 	.word	0x31073928
    5654:	39074168 	.word	0x39074168
    5658:	39694189 	.word	0x39694189
    565c:	41aa41aa 	.word	0x41aa41aa
    5660:	4a2b41ea 	.word	0x4a2b41ea
    5664:	5b2e4aad 	.word	0x5b2e4aad
    5668:	532e5b4f 	.word	0x532e5b4f
    566c:	424b52cd 	.word	0x424b52cd
    5670:	41a941e9 	.word	0x41a941e9
    5674:	39474168 	.word	0x39474168
    5678:	38e63927 	.word	0x38e63927
    567c:	38e538c5 	.word	0x38e538c5
    5680:	38a538c5 	.word	0x38a538c5
    5684:	308438a5 	.word	0x308438a5
    5688:	388438a4 	.word	0x388438a4
    568c:	38843884 	.word	0x38843884
    5690:	38843884 	.word	0x38843884
    5694:	30843884 	.word	0x30843884
    5698:	30833084 	.word	0x30833084
    569c:	30833083 	.word	0x30833083
    56a0:	30833083 	.word	0x30833083
    56a4:	30633063 	.word	0x30633063
    56a8:	30633063 	.word	0x30633063
    56ac:	30633063 	.word	0x30633063
    56b0:	30633063 	.word	0x30633063
    56b4:	30633063 	.word	0x30633063
    56b8:	30633043 	.word	0x30633043
    56bc:	30433063 	.word	0x30433063
    56c0:	30623062 	.word	0x30623062
    56c4:	30423042 	.word	0x30423042
    56c8:	30423042 	.word	0x30423042
    56cc:	30423042 	.word	0x30423042
    56d0:	30423042 	.word	0x30423042
    56d4:	30423042 	.word	0x30423042
    56d8:	28423042 	.word	0x28423042
    56dc:	28422842 	.word	0x28422842
    56e0:	28422842 	.word	0x28422842
    56e4:	28422842 	.word	0x28422842
    56e8:	28422842 	.word	0x28422842
    56ec:	28422842 	.word	0x28422842
    56f0:	28222842 	.word	0x28222842
    56f4:	28212822 	.word	0x28212822
    56f8:	28212821 	.word	0x28212821
    56fc:	28212821 	.word	0x28212821
    5700:	28212821 	.word	0x28212821
    5704:	28212821 	.word	0x28212821
    5708:	28212821 	.word	0x28212821
    570c:	28212821 	.word	0x28212821
    5710:	20212821 	.word	0x20212821
    5714:	20212021 	.word	0x20212021
    5718:	20212021 	.word	0x20212021
    571c:	20212021 	.word	0x20212021
    5720:	20212021 	.word	0x20212021
    5724:	20212021 	.word	0x20212021
    5728:	20212021 	.word	0x20212021
    572c:	20212021 	.word	0x20212021
    5730:	20212021 	.word	0x20212021
    5734:	20212021 	.word	0x20212021
    5738:	18012021 	.word	0x18012021
    573c:	18011801 	.word	0x18011801
    5740:	18011801 	.word	0x18011801
    5744:	18011801 	.word	0x18011801
    5748:	18001801 	.word	0x18001801
    574c:	18001800 	.word	0x18001800
    5750:	18001800 	.word	0x18001800
    5754:	18001800 	.word	0x18001800
    5758:	18001800 	.word	0x18001800
    575c:	18001800 	.word	0x18001800
    5760:	18001800 	.word	0x18001800
    5764:	18001800 	.word	0x18001800
    5768:	18001800 	.word	0x18001800
    576c:	18001800 	.word	0x18001800
    5770:	18201800 	.word	0x18201800
    5774:	18201820 	.word	0x18201820
    5778:	08841820 	.word	0x08841820
    577c:	08840884 	.word	0x08840884
    5780:	08840884 	.word	0x08840884
    5784:	08840884 	.word	0x08840884
    5788:	08840884 	.word	0x08840884
    578c:	08840884 	.word	0x08840884
    5790:	08840884 	.word	0x08840884
    5794:	08840884 	.word	0x08840884
    5798:	08840884 	.word	0x08840884
    579c:	08840884 	.word	0x08840884
    57a0:	08840884 	.word	0x08840884
    57a4:	08840884 	.word	0x08840884
    57a8:	08840884 	.word	0x08840884
    57ac:	08840884 	.word	0x08840884
    57b0:	08840884 	.word	0x08840884
    57b4:	08840884 	.word	0x08840884
    57b8:	08830884 	.word	0x08830884
    57bc:	08830883 	.word	0x08830883
    57c0:	08840884 	.word	0x08840884
    57c4:	08840884 	.word	0x08840884
    57c8:	08840884 	.word	0x08840884
    57cc:	08840884 	.word	0x08840884
    57d0:	08840884 	.word	0x08840884
    57d4:	08840884 	.word	0x08840884
    57d8:	08840884 	.word	0x08840884
    57dc:	08840884 	.word	0x08840884
    57e0:	08840884 	.word	0x08840884
    57e4:	08a40884 	.word	0x08a40884
    57e8:	00a40084 	.word	0x00a40084
    57ec:	110608e5 	.word	0x110608e5
    57f0:	08c51106 	.word	0x08c51106
    57f4:	00a400a4 	.word	0x00a400a4
    57f8:	08a508c5 	.word	0x08a508c5
    57fc:	08a508a5 	.word	0x08a508a5
    5800:	08c508c5 	.word	0x08c508c5
    5804:	08c508c5 	.word	0x08c508c5
    5808:	08c508c5 	.word	0x08c508c5
    580c:	08e508c5 	.word	0x08e508c5
    5810:	08e508e5 	.word	0x08e508e5
    5814:	10e608e5 	.word	0x10e608e5
    5818:	10e61106 	.word	0x10e61106
    581c:	110610e6 	.word	0x110610e6
    5820:	11061106 	.word	0x11061106
    5824:	11061106 	.word	0x11061106
    5828:	11271106 	.word	0x11271106
    582c:	11271127 	.word	0x11271127
    5830:	19271127 	.word	0x19271127
    5834:	19271927 	.word	0x19271927
    5838:	11471927 	.word	0x11471927
    583c:	21481907 	.word	0x21481907
    5840:	11481968 	.word	0x11481968
    5844:	29072127 	.word	0x29072127
    5848:	0a2b1948 	.word	0x0a2b1948
    584c:	120a54d6 	.word	0x120a54d6
    5850:	21881947 	.word	0x21881947
    5854:	21891188 	.word	0x21891188
    5858:	294a2929 	.word	0x294a2929
    585c:	29682969 	.word	0x29682969
    5860:	21882188 	.word	0x21882188
    5864:	29692988 	.word	0x29692988
    5868:	21692189 	.word	0x21692189
    586c:	29a929a9 	.word	0x29a929a9
    5870:	29aa2988 	.word	0x29aa2988
    5874:	29692169 	.word	0x29692169
    5878:	44342108 	.word	0x44342108
    587c:	29683b0f 	.word	0x29683b0f
    5880:	39693948 	.word	0x39693948
    5884:	298a316a 	.word	0x298a316a
    5888:	318831a9 	.word	0x318831a9
    588c:	396a3169 	.word	0x396a3169
    5890:	41483928 	.word	0x41483928
    5894:	42cf3147 	.word	0x42cf3147
    5898:	292822d1 	.word	0x292822d1
    589c:	31692969 	.word	0x31692969
    58a0:	39473148 	.word	0x39473148
    58a4:	39693947 	.word	0x39693947
    58a8:	528e2949 	.word	0x528e2949
    58ac:	31492908 	.word	0x31492908
    58b0:	39273948 	.word	0x39273948
    58b4:	41aa3927 	.word	0x41aa3927
    58b8:	312739ab 	.word	0x312739ab
    58bc:	39273927 	.word	0x39273927
    58c0:	41694168 	.word	0x41694168
    58c4:	39283907 	.word	0x39283907
    58c8:	39284148 	.word	0x39284148
    58cc:	39283107 	.word	0x39283107
    58d0:	31073948 	.word	0x31073948
    58d4:	39284169 	.word	0x39284169
    58d8:	39694189 	.word	0x39694189
    58dc:	41aa41aa 	.word	0x41aa41aa
    58e0:	4a2c41eb 	.word	0x4a2c41eb
    58e4:	5b2e52ad 	.word	0x5b2e52ad
    58e8:	5b4e5b6f 	.word	0x5b4e5b6f
    58ec:	422b52cd 	.word	0x422b52cd
    58f0:	41c941ea 	.word	0x41c941ea
    58f4:	39274168 	.word	0x39274168
    58f8:	39063927 	.word	0x39063927
    58fc:	38c538c5 	.word	0x38c538c5
    5900:	38a538c5 	.word	0x38a538c5
    5904:	38a438a5 	.word	0x38a438a5
    5908:	388438a5 	.word	0x388438a5
    590c:	38843884 	.word	0x38843884
    5910:	38843884 	.word	0x38843884
    5914:	38843884 	.word	0x38843884
    5918:	30833884 	.word	0x30833884
    591c:	38843083 	.word	0x38843083
    5920:	30833083 	.word	0x30833083
    5924:	30633063 	.word	0x30633063
    5928:	30633083 	.word	0x30633083
    592c:	30633063 	.word	0x30633063
    5930:	30633063 	.word	0x30633063
    5934:	30633063 	.word	0x30633063
    5938:	30623063 	.word	0x30623063
    593c:	30623062 	.word	0x30623062
    5940:	30623042 	.word	0x30623042
    5944:	30623062 	.word	0x30623062
    5948:	30423042 	.word	0x30423042
    594c:	30423042 	.word	0x30423042
    5950:	30423042 	.word	0x30423042
    5954:	30423042 	.word	0x30423042
    5958:	30423042 	.word	0x30423042
    595c:	28423042 	.word	0x28423042
    5960:	28422842 	.word	0x28422842
    5964:	28422842 	.word	0x28422842
    5968:	28222842 	.word	0x28222842
    596c:	28422842 	.word	0x28422842
    5970:	28212822 	.word	0x28212822
    5974:	28212822 	.word	0x28212822
    5978:	28212821 	.word	0x28212821
    597c:	28212821 	.word	0x28212821
    5980:	28212821 	.word	0x28212821
    5984:	28212821 	.word	0x28212821
    5988:	28212821 	.word	0x28212821
    598c:	28212821 	.word	0x28212821
    5990:	28212821 	.word	0x28212821
    5994:	28212821 	.word	0x28212821
    5998:	20212821 	.word	0x20212821
    599c:	20212021 	.word	0x20212021
    59a0:	20212021 	.word	0x20212021
    59a4:	20212021 	.word	0x20212021
    59a8:	20212021 	.word	0x20212021
    59ac:	20212021 	.word	0x20212021
    59b0:	20212021 	.word	0x20212021
    59b4:	20212021 	.word	0x20212021
    59b8:	20212021 	.word	0x20212021
    59bc:	20212021 	.word	0x20212021
    59c0:	18012021 	.word	0x18012021
    59c4:	18011801 	.word	0x18011801
    59c8:	18001801 	.word	0x18001801
    59cc:	18001800 	.word	0x18001800
    59d0:	18001800 	.word	0x18001800
    59d4:	18211800 	.word	0x18211800
    59d8:	18211821 	.word	0x18211821
    59dc:	18211821 	.word	0x18211821
    59e0:	18201820 	.word	0x18201820
    59e4:	18201820 	.word	0x18201820
    59e8:	18001820 	.word	0x18001820
    59ec:	18001800 	.word	0x18001800
    59f0:	18201820 	.word	0x18201820
    59f4:	18201820 	.word	0x18201820
    59f8:	08841821 	.word	0x08841821
    59fc:	08840884 	.word	0x08840884
    5a00:	08840884 	.word	0x08840884
    5a04:	08840884 	.word	0x08840884
    5a08:	08840884 	.word	0x08840884
    5a0c:	08840884 	.word	0x08840884
    5a10:	08840884 	.word	0x08840884
    5a14:	08840884 	.word	0x08840884
    5a18:	08840884 	.word	0x08840884
    5a1c:	08840884 	.word	0x08840884
    5a20:	08840884 	.word	0x08840884
    5a24:	08840884 	.word	0x08840884
    5a28:	08840884 	.word	0x08840884
    5a2c:	08840884 	.word	0x08840884
    5a30:	08840884 	.word	0x08840884
    5a34:	08840884 	.word	0x08840884
    5a38:	08830884 	.word	0x08830884
    5a3c:	08830883 	.word	0x08830883
    5a40:	08840884 	.word	0x08840884
    5a44:	08840884 	.word	0x08840884
    5a48:	08840884 	.word	0x08840884
    5a4c:	08840884 	.word	0x08840884
    5a50:	08840884 	.word	0x08840884
    5a54:	08840884 	.word	0x08840884
    5a58:	08840884 	.word	0x08840884
    5a5c:	08840884 	.word	0x08840884
    5a60:	08a40884 	.word	0x08a40884
    5a64:	08a408a4 	.word	0x08a408a4
    5a68:	00a40084 	.word	0x00a40084
    5a6c:	08c500a4 	.word	0x08c500a4
    5a70:	11261106 	.word	0x11261106
    5a74:	08c51106 	.word	0x08c51106
    5a78:	08a500a4 	.word	0x08a500a4
    5a7c:	08a508a5 	.word	0x08a508a5
    5a80:	08c508c5 	.word	0x08c508c5
    5a84:	08c508c5 	.word	0x08c508c5
    5a88:	08e508c5 	.word	0x08e508c5
    5a8c:	08c508c5 	.word	0x08c508c5
    5a90:	10e608e5 	.word	0x10e608e5
    5a94:	10e608e5 	.word	0x10e608e5
    5a98:	09061106 	.word	0x09061106
    5a9c:	11061106 	.word	0x11061106
    5aa0:	11061106 	.word	0x11061106
    5aa4:	11061106 	.word	0x11061106
    5aa8:	11271106 	.word	0x11271106
    5aac:	11271127 	.word	0x11271127
    5ab0:	19271927 	.word	0x19271927
    5ab4:	11471947 	.word	0x11471947
    5ab8:	19471147 	.word	0x19471147
    5abc:	19072147 	.word	0x19072147
    5ac0:	11681948 	.word	0x11681948
    5ac4:	29281948 	.word	0x29281948
    5ac8:	11892128 	.word	0x11892128
    5acc:	5cf501ea 	.word	0x5cf501ea
    5ad0:	09281a4b 	.word	0x09281a4b
    5ad4:	296921aa 	.word	0x296921aa
    5ad8:	294a2948 	.word	0x294a2948
    5adc:	21882969 	.word	0x21882969
    5ae0:	29882988 	.word	0x29882988
    5ae4:	29892988 	.word	0x29892988
    5ae8:	31a92989 	.word	0x31a92989
    5aec:	29892968 	.word	0x29892968
    5af0:	218a2169 	.word	0x218a2169
    5af4:	31a929aa 	.word	0x31a929aa
    5af8:	09893188 	.word	0x09893188
    5afc:	2a2c74b6 	.word	0x2a2c74b6
    5b00:	29692189 	.word	0x29692189
    5b04:	39a93169 	.word	0x39a93169
    5b08:	31883168 	.word	0x31883168
    5b0c:	31683168 	.word	0x31683168
    5b10:	39483969 	.word	0x39483969
    5b14:	19493969 	.word	0x19493969
    5b18:	29495bf5 	.word	0x29495bf5
    5b1c:	31683169 	.word	0x31683169
    5b20:	39693168 	.word	0x39693168
    5b24:	39473948 	.word	0x39473948
    5b28:	52af3148 	.word	0x52af3148
    5b2c:	314a298b 	.word	0x314a298b
    5b30:	39273948 	.word	0x39273948
    5b34:	29083948 	.word	0x29083948
    5b38:	31484a2d 	.word	0x31484a2d
    5b3c:	41273927 	.word	0x41273927
    5b40:	41aa3927 	.word	0x41aa3927
    5b44:	41283108 	.word	0x41283108
    5b48:	41694107 	.word	0x41694107
    5b4c:	39283108 	.word	0x39283108
    5b50:	39074169 	.word	0x39074169
    5b54:	39484169 	.word	0x39484169
    5b58:	41cb4169 	.word	0x41cb4169
    5b5c:	41ab49ec 	.word	0x41ab49ec
    5b60:	4a4c41eb 	.word	0x4a4c41eb
    5b64:	5b0e52ad 	.word	0x5b0e52ad
    5b68:	5b4f5b6f 	.word	0x5b4f5b6f
    5b6c:	424b52cd 	.word	0x424b52cd
    5b70:	41aa41ea 	.word	0x41aa41ea
    5b74:	41484169 	.word	0x41484169
    5b78:	41064169 	.word	0x41064169
    5b7c:	38c538c5 	.word	0x38c538c5
    5b80:	38a538c5 	.word	0x38a538c5
    5b84:	38a538a5 	.word	0x38a538a5
    5b88:	38a438a5 	.word	0x38a438a5
    5b8c:	38843884 	.word	0x38843884
    5b90:	38843884 	.word	0x38843884
    5b94:	38843884 	.word	0x38843884
    5b98:	38843884 	.word	0x38843884
    5b9c:	38843884 	.word	0x38843884
    5ba0:	30833884 	.word	0x30833884
    5ba4:	30833083 	.word	0x30833083
    5ba8:	38833083 	.word	0x38833083
    5bac:	30633063 	.word	0x30633063
    5bb0:	30633063 	.word	0x30633063
    5bb4:	30633063 	.word	0x30633063
    5bb8:	30623063 	.word	0x30623063
    5bbc:	30623062 	.word	0x30623062
    5bc0:	30623062 	.word	0x30623062
    5bc4:	30623042 	.word	0x30623042
    5bc8:	30623062 	.word	0x30623062
    5bcc:	30423062 	.word	0x30423062
    5bd0:	30423042 	.word	0x30423042
    5bd4:	30423042 	.word	0x30423042
    5bd8:	30423042 	.word	0x30423042
    5bdc:	30423042 	.word	0x30423042
    5be0:	28423042 	.word	0x28423042
    5be4:	30422842 	.word	0x30422842
    5be8:	28423042 	.word	0x28423042
    5bec:	28422842 	.word	0x28422842
    5bf0:	28212822 	.word	0x28212822
    5bf4:	28222822 	.word	0x28222822
    5bf8:	28212821 	.word	0x28212821
    5bfc:	28212821 	.word	0x28212821
    5c00:	28212821 	.word	0x28212821
    5c04:	28212821 	.word	0x28212821
    5c08:	28212821 	.word	0x28212821
    5c0c:	28212821 	.word	0x28212821
    5c10:	28212821 	.word	0x28212821
    5c14:	28212821 	.word	0x28212821
    5c18:	20212821 	.word	0x20212821
    5c1c:	20212021 	.word	0x20212021
    5c20:	20212021 	.word	0x20212021
    5c24:	20212021 	.word	0x20212021
    5c28:	20212021 	.word	0x20212021
    5c2c:	20212021 	.word	0x20212021
    5c30:	20212021 	.word	0x20212021
    5c34:	20212021 	.word	0x20212021
    5c38:	20212021 	.word	0x20212021
    5c3c:	20212021 	.word	0x20212021
    5c40:	20212021 	.word	0x20212021
    5c44:	18211821 	.word	0x18211821
    5c48:	18011821 	.word	0x18011821
    5c4c:	18011801 	.word	0x18011801
    5c50:	18001800 	.word	0x18001800
    5c54:	18001800 	.word	0x18001800
    5c58:	18211800 	.word	0x18211800
    5c5c:	18211821 	.word	0x18211821
    5c60:	18211821 	.word	0x18211821
    5c64:	18201820 	.word	0x18201820
    5c68:	18201820 	.word	0x18201820
    5c6c:	18201820 	.word	0x18201820
    5c70:	18201820 	.word	0x18201820
    5c74:	18201820 	.word	0x18201820
    5c78:	08841820 	.word	0x08841820
    5c7c:	08840884 	.word	0x08840884
    5c80:	08840884 	.word	0x08840884
    5c84:	08840884 	.word	0x08840884
    5c88:	08840884 	.word	0x08840884
    5c8c:	08840884 	.word	0x08840884
    5c90:	08840884 	.word	0x08840884
    5c94:	08840884 	.word	0x08840884
    5c98:	08840884 	.word	0x08840884
    5c9c:	08840884 	.word	0x08840884
    5ca0:	08840884 	.word	0x08840884
    5ca4:	08840884 	.word	0x08840884
    5ca8:	08840884 	.word	0x08840884
    5cac:	08840884 	.word	0x08840884
    5cb0:	08840884 	.word	0x08840884
    5cb4:	08840884 	.word	0x08840884
    5cb8:	08830884 	.word	0x08830884
    5cbc:	08830883 	.word	0x08830883
    5cc0:	08840884 	.word	0x08840884
    5cc4:	08840884 	.word	0x08840884
    5cc8:	08840884 	.word	0x08840884
    5ccc:	08840884 	.word	0x08840884
    5cd0:	08840884 	.word	0x08840884
    5cd4:	08840884 	.word	0x08840884
    5cd8:	08840884 	.word	0x08840884
    5cdc:	08840884 	.word	0x08840884
    5ce0:	08840884 	.word	0x08840884
    5ce4:	08a40884 	.word	0x08a40884
    5ce8:	00a408a5 	.word	0x00a408a5
    5cec:	00a400a4 	.word	0x00a400a4
    5cf0:	08e500a4 	.word	0x08e500a4
    5cf4:	11261126 	.word	0x11261126
    5cf8:	08a508e5 	.word	0x08a508e5
    5cfc:	08c508a5 	.word	0x08c508a5
    5d00:	08c508c5 	.word	0x08c508c5
    5d04:	08c508c5 	.word	0x08c508c5
    5d08:	08e508c5 	.word	0x08e508c5
    5d0c:	08c508c5 	.word	0x08c508c5
    5d10:	10e608e5 	.word	0x10e608e5
    5d14:	10e610e6 	.word	0x10e610e6
    5d18:	09061106 	.word	0x09061106
    5d1c:	11060906 	.word	0x11060906
    5d20:	18e610e6 	.word	0x18e610e6
    5d24:	190618e6 	.word	0x190618e6
    5d28:	11271907 	.word	0x11271907
    5d2c:	19271907 	.word	0x19271907
    5d30:	19271927 	.word	0x19271927
    5d34:	11671147 	.word	0x11671147
    5d38:	19271167 	.word	0x19271167
    5d3c:	21481927 	.word	0x21481927
    5d40:	19472127 	.word	0x19472127
    5d44:	114819a9 	.word	0x114819a9
    5d48:	29282969 	.word	0x29282969
    5d4c:	024b1188 	.word	0x024b1188
    5d50:	226d4cf6 	.word	0x226d4cf6
    5d54:	31482128 	.word	0x31482128
    5d58:	29692188 	.word	0x29692188
    5d5c:	29892169 	.word	0x29892169
    5d60:	29892969 	.word	0x29892969
    5d64:	21a821a8 	.word	0x21a821a8
    5d68:	31682988 	.word	0x31682988
    5d6c:	298a3169 	.word	0x298a3169
    5d70:	316a298a 	.word	0x316a298a
    5d74:	31883169 	.word	0x31883169
    5d78:	29a929a8 	.word	0x29a929a8
    5d7c:	7d18198a 	.word	0x7d18198a
    5d80:	21eb09ab 	.word	0x21eb09ab
    5d84:	314731a9 	.word	0x314731a9
    5d88:	39883968 	.word	0x39883968
    5d8c:	31883188 	.word	0x31883188
    5d90:	31693168 	.word	0x31693168
    5d94:	298b296a 	.word	0x298b296a
    5d98:	6b5131cc 	.word	0x6b5131cc
    5d9c:	39892927 	.word	0x39892927
    5da0:	31483189 	.word	0x31483189
    5da4:	41274168 	.word	0x41274168
    5da8:	21493968 	.word	0x21493968
    5dac:	292952f1 	.word	0x292952f1
    5db0:	41473928 	.word	0x41473928
    5db4:	31493927 	.word	0x31493927
    5db8:	396941cc 	.word	0x396941cc
    5dbc:	41264147 	.word	0x41264147
    5dc0:	49cb3927 	.word	0x49cb3927
    5dc4:	39073128 	.word	0x39073128
    5dc8:	49893906 	.word	0x49893906
    5dcc:	31283128 	.word	0x31283128
    5dd0:	39274169 	.word	0x39274169
    5dd4:	41693948 	.word	0x41693948
    5dd8:	524d3969 	.word	0x524d3969
    5ddc:	41cb524d 	.word	0x41cb524d
    5de0:	4a4c4a0c 	.word	0x4a4c4a0c
    5de4:	5b2e52ad 	.word	0x5b2e52ad
    5de8:	5b4f5b6f 	.word	0x5b4f5b6f
    5dec:	4a4b52ed 	.word	0x4a4b52ed
    5df0:	41aa49ea 	.word	0x41aa49ea
    5df4:	41894169 	.word	0x41894169
    5df8:	4147520b 	.word	0x4147520b
    5dfc:	38c538e6 	.word	0x38c538e6
    5e00:	38a538c5 	.word	0x38a538c5
    5e04:	38a538c5 	.word	0x38a538c5
    5e08:	38a538a5 	.word	0x38a538a5
    5e0c:	388438a4 	.word	0x388438a4
    5e10:	38843884 	.word	0x38843884
    5e14:	38843884 	.word	0x38843884
    5e18:	38843884 	.word	0x38843884
    5e1c:	38843884 	.word	0x38843884
    5e20:	38843884 	.word	0x38843884
    5e24:	30833884 	.word	0x30833884
    5e28:	38833083 	.word	0x38833083
    5e2c:	30633883 	.word	0x30633883
    5e30:	30633063 	.word	0x30633063
    5e34:	30633063 	.word	0x30633063
    5e38:	30623063 	.word	0x30623063
    5e3c:	30623062 	.word	0x30623062
    5e40:	30623062 	.word	0x30623062
    5e44:	30623062 	.word	0x30623062
    5e48:	30623062 	.word	0x30623062
    5e4c:	30623062 	.word	0x30623062
    5e50:	30423042 	.word	0x30423042
    5e54:	30423042 	.word	0x30423042
    5e58:	30423042 	.word	0x30423042
    5e5c:	30423042 	.word	0x30423042
    5e60:	30423042 	.word	0x30423042
    5e64:	30423042 	.word	0x30423042
    5e68:	28423042 	.word	0x28423042
    5e6c:	28423042 	.word	0x28423042
    5e70:	28212822 	.word	0x28212822
    5e74:	28222822 	.word	0x28222822
    5e78:	28222821 	.word	0x28222821
    5e7c:	28212822 	.word	0x28212822
    5e80:	28212821 	.word	0x28212821
    5e84:	28212821 	.word	0x28212821
    5e88:	28212821 	.word	0x28212821
    5e8c:	28212821 	.word	0x28212821
    5e90:	28212821 	.word	0x28212821
    5e94:	28212821 	.word	0x28212821
    5e98:	20212821 	.word	0x20212821
    5e9c:	20212021 	.word	0x20212021
    5ea0:	20212021 	.word	0x20212021
    5ea4:	20212021 	.word	0x20212021
    5ea8:	20212021 	.word	0x20212021
    5eac:	20212021 	.word	0x20212021
    5eb0:	20212021 	.word	0x20212021
    5eb4:	20212021 	.word	0x20212021
    5eb8:	20212021 	.word	0x20212021
    5ebc:	20212021 	.word	0x20212021
    5ec0:	20212021 	.word	0x20212021
    5ec4:	18211821 	.word	0x18211821
    5ec8:	18211821 	.word	0x18211821
    5ecc:	18011801 	.word	0x18011801
    5ed0:	18001801 	.word	0x18001801
    5ed4:	18001800 	.word	0x18001800
    5ed8:	18211800 	.word	0x18211800
    5edc:	18211821 	.word	0x18211821
    5ee0:	18201820 	.word	0x18201820
    5ee4:	18201820 	.word	0x18201820
    5ee8:	18201820 	.word	0x18201820
    5eec:	18201820 	.word	0x18201820
    5ef0:	18201820 	.word	0x18201820
    5ef4:	18201820 	.word	0x18201820
    5ef8:	08841820 	.word	0x08841820
    5efc:	08840884 	.word	0x08840884
    5f00:	08840884 	.word	0x08840884
    5f04:	08840884 	.word	0x08840884
    5f08:	08840884 	.word	0x08840884
    5f0c:	08840884 	.word	0x08840884
    5f10:	08840884 	.word	0x08840884
    5f14:	08840884 	.word	0x08840884
    5f18:	08840884 	.word	0x08840884
    5f1c:	08840884 	.word	0x08840884
    5f20:	08840884 	.word	0x08840884
    5f24:	08840884 	.word	0x08840884
    5f28:	08840884 	.word	0x08840884
    5f2c:	08840884 	.word	0x08840884
    5f30:	08840884 	.word	0x08840884
    5f34:	08840884 	.word	0x08840884
    5f38:	08840884 	.word	0x08840884
    5f3c:	08840884 	.word	0x08840884
    5f40:	08840884 	.word	0x08840884
    5f44:	08840884 	.word	0x08840884
    5f48:	08840884 	.word	0x08840884
    5f4c:	08840884 	.word	0x08840884
    5f50:	08840884 	.word	0x08840884
    5f54:	08840884 	.word	0x08840884
    5f58:	08840884 	.word	0x08840884
    5f5c:	08a408a4 	.word	0x08a408a4
    5f60:	08840884 	.word	0x08840884
    5f64:	08840884 	.word	0x08840884
    5f68:	08840884 	.word	0x08840884
    5f6c:	08a408a4 	.word	0x08a408a4
    5f70:	08a508a5 	.word	0x08a508a5
    5f74:	110608c5 	.word	0x110608c5
    5f78:	01661126 	.word	0x01661126
    5f7c:	00a50105 	.word	0x00a50105
    5f80:	10a510a5 	.word	0x10a510a5
    5f84:	08c510a5 	.word	0x08c510a5
    5f88:	08e508e5 	.word	0x08e508e5
    5f8c:	10c508c5 	.word	0x10c508c5
    5f90:	10e610e6 	.word	0x10e610e6
    5f94:	08e508e5 	.word	0x08e508e5
    5f98:	110610e6 	.word	0x110610e6
    5f9c:	10e61106 	.word	0x10e61106
    5fa0:	11061106 	.word	0x11061106
    5fa4:	11261126 	.word	0x11261126
    5fa8:	11271127 	.word	0x11271127
    5fac:	11271127 	.word	0x11271127
    5fb0:	11471147 	.word	0x11471147
    5fb4:	19471947 	.word	0x19471947
    5fb8:	29082127 	.word	0x29082127
    5fbc:	11881948 	.word	0x11881948
    5fc0:	21481188 	.word	0x21481188
    5fc4:	19882148 	.word	0x19882148
    5fc8:	198911a8 	.word	0x198911a8
    5fcc:	21082949 	.word	0x21082949
    5fd0:	4d5509ea 	.word	0x4d5509ea
    5fd4:	1169030d 	.word	0x1169030d
    5fd8:	298840ea 	.word	0x298840ea
    5fdc:	316a2969 	.word	0x316a2969
    5fe0:	2189296a 	.word	0x2189296a
    5fe4:	296829a9 	.word	0x296829a9
    5fe8:	29693189 	.word	0x29693189
    5fec:	298b298a 	.word	0x298b298a
    5ff0:	318a318b 	.word	0x318a318b
    5ff4:	29a92989 	.word	0x29a92989
    5ff8:	414829a8 	.word	0x414829a8
    5ffc:	1a8e21ca 	.word	0x1a8e21ca
    6000:	212974b7 	.word	0x212974b7
    6004:	29eb3169 	.word	0x29eb3169
    6008:	318919a9 	.word	0x318919a9
    600c:	39694169 	.word	0x39694169
    6010:	31a92989 	.word	0x31a92989
    6014:	39693969 	.word	0x39693969
    6018:	4b742968 	.word	0x4b742968
    601c:	31882a0c 	.word	0x31882a0c
    6020:	41293928 	.word	0x41293928
    6024:	29674169 	.word	0x29674169
    6028:	314831a7 	.word	0x314831a7
